C51 COMPILER V9.00   MAIN                                                                  04/20/2021 21:02:48 PAGE 1   


C51 COMPILER V9.00, COMPILATION OF MODULE MAIN
OBJECT MODULE PLACED IN .\out\Release\main.o
COMPILER INVOKED BY: D:\Chipenvironment\keilC51\C51\BIN\C51.exe .\SRC\MAIN.C PRINT(.\out\Release\main.lst) OMF2 TABS(4) 
                    -CODE NOCOND SYMBOLS OPTIMIZE(8,SPEED) SMALL ROM(LARGE) INCDIR(D:\Chipenvironment\keilC51\C51\INC;.\src;.\libraries) DEFI
                    -NE(__UVISION_VERSION=526) OBJECT(.\out\Release\main.o)

line level    source

   1          #include"¶íÂÞË¹·½¿é.h"
   2          sbit gnd=P0^0;
   3          void main()
   4          { 
   5   1          gnd=0;
   6   1           while(1)
   7   1           {     
   8   2               setup();
   9   2               mainmenu();
  10   2               chooseplayer();
  11   2               choosedifficulty();
  12   2               game(); 
  13   2               showscore();   
  14   2           }
  15   1      }
  16          
C51 COMPILER V9.00   MAIN                                                                  04/20/2021 21:02:48 PAGE 2   

ASSEMBLY LISTING OF GENERATED OBJECT CODE


             ; FUNCTION LCD12864_clear_DDRAM (BEGIN)
                                           ; SOURCE LINE # 40
                                           ; SOURCE LINE # 41
                                           ; SOURCE LINE # 42
0000 7F01              MOV     R7,#01H
0002 120000      R     LCALL   _LCD12864_write_cmd
                                           ; SOURCE LINE # 43
0005 7F03              MOV     R7,#03H
0007 020000      R     LJMP    _LCD12864_write_cmd
             ; FUNCTION LCD12864_clear_DDRAM (END)

             ; FUNCTION L?0443 (BEGIN)
0000 E500        R     MOV     A,i
0002 2480              ADD     A,#080H
0004 FF                MOV     R7,A
             ; FUNCTION _LCD12864_write_cmd (BEGIN)
                                           ; SOURCE LINE # 45
0005 8F00        R     MOV     cmd,R7
                                           ; SOURCE LINE # 46
                                           ; SOURCE LINE # 47
0007 120000      R     LCALL   LCD12864_check_busy
                                           ; SOURCE LINE # 48
000A 8500A0      R     MOV     P2,cmd
                                           ; SOURCE LINE # 49
000D C297              CLR     LCD_RS
                                           ; SOURCE LINE # 50
000F C296              CLR     LCD_RW
                                           ; SOURCE LINE # 51
0011 D295              SETB    LCD_EN
                                           ; SOURCE LINE # 52
0013 00                NOP     
                                           ; SOURCE LINE # 53
0014 00                NOP     
                                           ; SOURCE LINE # 54
0015 00                NOP     
                                           ; SOURCE LINE # 55
0016 00                NOP     
                                           ; SOURCE LINE # 56
0017 00                NOP     
                                           ; SOURCE LINE # 57
0018 C295              CLR     LCD_EN
                                           ; SOURCE LINE # 58
001A 22                RET     
             ; FUNCTION _LCD12864_write_cmd (END)

             ; FUNCTION L?0453 (BEGIN)
0000 AB00        R     MOV     R3,p
0002 AA00        R     MOV     R2,p+01H
0004 A900        R     MOV     R1,p+02H
0006 120000      E     LCALL   ?C?CLDPTR
0009 FF                MOV     R7,A
             ; FUNCTION _LCD12864_write_data (BEGIN)
                                           ; SOURCE LINE # 59
000A 8F00        R     MOV     Data,R7
                                           ; SOURCE LINE # 60
                                           ; SOURCE LINE # 61
000C 120000      R     LCALL   LCD12864_check_busy
                                           ; SOURCE LINE # 62
000F 8500A0      R     MOV     P2,Data
C51 COMPILER V9.00   MAIN                                                                  04/20/2021 21:02:48 PAGE 3   

                                           ; SOURCE LINE # 63
0012 D297              SETB    LCD_RS
                                           ; SOURCE LINE # 64
0014 C296              CLR     LCD_RW
                                           ; SOURCE LINE # 65
0016 D295              SETB    LCD_EN
                                           ; SOURCE LINE # 66
0018 00                NOP     
                                           ; SOURCE LINE # 67
0019 00                NOP     
                                           ; SOURCE LINE # 68
001A 00                NOP     
                                           ; SOURCE LINE # 69
001B 00                NOP     
                                           ; SOURCE LINE # 70
001C 00                NOP     
                                           ; SOURCE LINE # 71
001D C295              CLR     LCD_EN
                                           ; SOURCE LINE # 72
001F 22                RET     
             ; FUNCTION _LCD12864_write_data (END)

             ; FUNCTION L?0437 (BEGIN)
0000 E500        R     MOV     A,gamemode
0002         L?0438:
0002 5401              ANL     A,#01H
0004 2402              ADD     A,#02H
0006 FF                MOV     R7,A
0007 E500        R     MOV     A,gamemode
0009 C3                CLR     C
000A 13                RRC     A
000B 25E0              ADD     A,ACC
000D 25E0              ADD     A,ACC
000F 04                INC     A
0010 FD                MOV     R5,A
             ; FUNCTION _LCD12864_pos (BEGIN)
                                           ; SOURCE LINE # 73
;---- Variable 'x' assigned to Register 'R7' ----
;---- Variable 'y' assigned to Register 'R5' ----
                                           ; SOURCE LINE # 74
                                           ; SOURCE LINE # 75
0011 EF                MOV     A,R7
0012 14                DEC     A
0013 600E              JZ      ?C0006
0015 14                DEC     A
0016 600F              JZ      ?C0007
0018 14                DEC     A
0019 6010              JZ      ?C0008
001B 2403              ADD     A,#03H
001D 700E              JNZ     ?C0004
                                           ; SOURCE LINE # 76
                                           ; SOURCE LINE # 77
001F         ?C0005:
001F 7F80              MOV     R7,#080H
                                           ; SOURCE LINE # 78
0021 800A              SJMP    ?C0004
                                           ; SOURCE LINE # 79
0023         ?C0006:
0023 7F90              MOV     R7,#090H
                                           ; SOURCE LINE # 80
0025 8006              SJMP    ?C0004
                                           ; SOURCE LINE # 81
C51 COMPILER V9.00   MAIN                                                                  04/20/2021 21:02:48 PAGE 4   

0027         ?C0007:
0027 7F88              MOV     R7,#088H
                                           ; SOURCE LINE # 82
0029 8002              SJMP    ?C0004
                                           ; SOURCE LINE # 83
002B         ?C0008:
002B 7F98              MOV     R7,#098H
                                           ; SOURCE LINE # 84
                                           ; SOURCE LINE # 85
002D         ?C0004:
                                           ; SOURCE LINE # 86
002D EF                MOV     A,R7
002E 2D                ADD     A,R5
002F FF                MOV     R7,A
0030 020000      R     LJMP    _LCD12864_write_cmd
             ; FUNCTION _LCD12864_pos (END)

             ; FUNCTION LCD12864_init (BEGIN)
                                           ; SOURCE LINE # 88
                                           ; SOURCE LINE # 89
                                           ; SOURCE LINE # 90
0000 7F33              MOV     R7,#033H
0002 120000      R     LCALL   _LCD12864_write_cmd
                                           ; SOURCE LINE # 91
0005 7F30              MOV     R7,#030H
0007 120000      R     LCALL   _LCD12864_write_cmd
                                           ; SOURCE LINE # 92
000A 7F01              MOV     R7,#01H
000C 120000      R     LCALL   _LCD12864_write_cmd
                                           ; SOURCE LINE # 93
000F 7F0C              MOV     R7,#0CH
0011 120000      R     LCALL   _LCD12864_write_cmd
                                           ; SOURCE LINE # 94
0014 7F06              MOV     R7,#06H
0016 120000      R     LCALL   _LCD12864_write_cmd
                                           ; SOURCE LINE # 95
0019 7F03              MOV     R7,#03H
001B 020000      R     LJMP    _LCD12864_write_cmd
             ; FUNCTION LCD12864_init (END)

             ; FUNCTION LCD12864_check_busy (BEGIN)
                                           ; SOURCE LINE # 97
                                           ; SOURCE LINE # 98
                                           ; SOURCE LINE # 99
0000 75A0FF            MOV     P2,#0FFH
0003         ?C0013:
                                           ; SOURCE LINE # 101
                                           ; SOURCE LINE # 102
0003 C297              CLR     LCD_RS
                                           ; SOURCE LINE # 103
0005 D296              SETB    LCD_RW
                                           ; SOURCE LINE # 104
0007 D295              SETB    LCD_EN
                                           ; SOURCE LINE # 105
                                           ; SOURCE LINE # 106
0009 E5A0              MOV     A,P2
000B 20E7F5            JB      ACC.7,?C0013
                                           ; SOURCE LINE # 107
000E C295              CLR     LCD_EN
                                           ; SOURCE LINE # 108
0010 22                RET     
             ; FUNCTION LCD12864_check_busy (END)
C51 COMPILER V9.00   MAIN                                                                  04/20/2021 21:02:48 PAGE 5   


             ; FUNCTION _LCD12864_SET_CGRAM (BEGIN)
                                           ; SOURCE LINE # 109
0000 8F00        R     MOV     num,R7
0002 8B00        R     MOV     p,R3
0004 8A00        R     MOV     p+01H,R2
0006 8900        R     MOV     p+02H,R1
                                           ; SOURCE LINE # 110
                                           ; SOURCE LINE # 112
0008 7F34              MOV     R7,#034H
000A 120000      R     LCALL   _LCD12864_write_cmd
                                           ; SOURCE LINE # 113
000D 7F02              MOV     R7,#02H
000F 120000      R     LCALL   _LCD12864_write_cmd
                                           ; SOURCE LINE # 114
0012 7F30              MOV     R7,#030H
0014 120000      R     LCALL   _LCD12864_write_cmd
                                           ; SOURCE LINE # 115
0017 E500        R     MOV     A,num
0019 C4                SWAP    A
001A 54F0              ANL     A,#0F0H
001C 4440              ORL     A,#040H
001E F500        R     MOV     firstadd,A
                                           ; SOURCE LINE # 116
0020 E4                CLR     A
0021 F500        R     MOV     i,A
0023         ?C0015:
                                           ; SOURCE LINE # 117
                                           ; SOURCE LINE # 118
0023 E500        R     MOV     A,firstadd
0025 2500        R     ADD     A,i
0027 FF                MOV     R7,A
0028 120000      R     LCALL   _LCD12864_write_cmd
                                           ; SOURCE LINE # 119
002B AB00        R     MOV     R3,p
002D AA00        R     MOV     R2,p+01H
002F A900        R     MOV     R1,p+02H
0031 75F002            MOV     B,#02H
0034 E500        R     MOV     A,i
0036 A4                MUL     AB
0037 F582              MOV     DPL,A
0039 85F083            MOV     DPH,B
003C 120000      E     LCALL   ?C?CLDOPTR
003F FF                MOV     R7,A
0040 120000      R     LCALL   _LCD12864_write_data
                                           ; SOURCE LINE # 120
0043 AB00        R     MOV     R3,p
0045 AA00        R     MOV     R2,p+01H
0047 A900        R     MOV     R1,p+02H
0049 75F002            MOV     B,#02H
004C E500        R     MOV     A,i
004E A4                MUL     AB
004F 2401              ADD     A,#01H
0051 F582              MOV     DPL,A
0053 E4                CLR     A
0054 35F0              ADDC    A,B
0056 F583              MOV     DPH,A
0058 120000      E     LCALL   ?C?CLDOPTR
005B FF                MOV     R7,A
005C 120000      R     LCALL   _LCD12864_write_data
                                           ; SOURCE LINE # 121
005F 0500        R     INC     i
C51 COMPILER V9.00   MAIN                                                                  04/20/2021 21:02:48 PAGE 6   

0061 E500        R     MOV     A,i
0063 C3                CLR     C
0064 9410              SUBB    A,#010H
0066 40BB              JC      ?C0015
                                           ; SOURCE LINE # 122
0068         ?C0018:
0068 22                RET     
             ; FUNCTION _LCD12864_SET_CGRAM (END)

             ; FUNCTION _LCD12864_display_CGRAM (BEGIN)
                                           ; SOURCE LINE # 123
0000 8F00        R     MOV     num,R7
;---- Variable 'y' assigned to Register 'R6' ----
0002 AE03              MOV     R6,AR3
;---- Variable 'x' assigned to Register 'R7' ----
0004 AF05              MOV     R7,AR5
                                           ; SOURCE LINE # 124
                                           ; SOURCE LINE # 125
0006 AD06              MOV     R5,AR6
0008 120000      R     LCALL   _LCD12864_pos
                                           ; SOURCE LINE # 126
000B E4                CLR     A
000C FF                MOV     R7,A
000D 120000      R     LCALL   _LCD12864_write_data
                                           ; SOURCE LINE # 127
0010 E500        R     MOV     A,num
0012 25E0              ADD     A,ACC
0014 FF                MOV     R7,A
0015 020000      R     LJMP    _LCD12864_write_data
             ; FUNCTION _LCD12864_display_CGRAM (END)

             ; FUNCTION L?0434 (BEGIN)
0000 8F00        R     MOV     start,R7
0002 7A00        R     MOV     R2,#HIGH ?SC_246
0004 7900        R     MOV     R1,#LOW ?SC_246
0006         L?0435:
0006 7BFF              MOV     R3,#0FFH
0008         L?0436:
0008 E4                CLR     A
0009 F500        R     MOV     ?_LCD12864_showstring?BYTE+05H,A
000B F500        R     MOV     ?_LCD12864_showstring?BYTE+06H,A
000D 7D01              MOV     R5,#01H
000F FC                MOV     R4,A
             ; FUNCTION _LCD12864_showstring (BEGIN)
                                           ; SOURCE LINE # 129
0010 8B00        R     MOV     p,R3
0012 8A00        R     MOV     p+01H,R2
0014 8900        R     MOV     p+02H,R1
0016 8C00        R     MOV     row,R4
0018 8D00        R     MOV     row+01H,R5
                                           ; SOURCE LINE # 130
                                           ; SOURCE LINE # 132
001A AF00        R     MOV     R7,row+01H
001C AD00        R     MOV     R5,col+01H
001E 120000      R     LCALL   _LCD12864_pos
                                           ; SOURCE LINE # 133
0021 E500        R     MOV     A,row
0023 702D              JNZ     ?C0020
0025 E500        R     MOV     A,row+01H
0027 14                DEC     A
0028 6012              JZ      ?C0022
002A 14                DEC     A
C51 COMPILER V9.00   MAIN                                                                  04/20/2021 21:02:48 PAGE 7   

002B 6017              JZ      ?C0023
002D 14                DEC     A
002E 601C              JZ      ?C0024
0030 2403              ADD     A,#03H
0032 701E              JNZ     ?C0020
                                           ; SOURCE LINE # 134
                                           ; SOURCE LINE # 135
0034         ?C0021:
0034 750000      R     MOV     row,#00H
0037 750080      R     MOV     row+01H,#080H
                                           ; SOURCE LINE # 136
003A 8016              SJMP    ?C0020
                                           ; SOURCE LINE # 137
003C         ?C0022:
003C 750000      R     MOV     row,#00H
003F 750090      R     MOV     row+01H,#090H
                                           ; SOURCE LINE # 138
0042 800E              SJMP    ?C0020
                                           ; SOURCE LINE # 139
0044         ?C0023:
0044 750000      R     MOV     row,#00H
0047 750088      R     MOV     row+01H,#088H
                                           ; SOURCE LINE # 140
004A 8006              SJMP    ?C0020
                                           ; SOURCE LINE # 141
004C         ?C0024:
004C 750000      R     MOV     row,#00H
004F 750098      R     MOV     row+01H,#098H
                                           ; SOURCE LINE # 142
                                           ; SOURCE LINE # 143
0052         ?C0020:
                                           ; SOURCE LINE # 144
0052 E500        R     MOV     A,col+01H
0054 2500        R     ADD     A,row+01H
0056 F500        R     MOV     row+01H,A
0058 E500        R     MOV     A,col
005A 3500        R     ADDC    A,row
005C F500        R     MOV     row,A
                                           ; SOURCE LINE # 145
005E E4                CLR     A
005F F500        R     MOV     i,A
0061         ?C0025:
0061 AB00        R     MOV     R3,p
0063 AA00        R     MOV     R2,p+01H
0065 A900        R     MOV     R1,p+02H
0067 850082      R     MOV     DPL,i
006A 758300            MOV     DPH,#00H
006D 120000      E     LCALL   ?C?CLDOPTR
0070 FF                MOV     R7,A
0071 6049              JZ      ?C0034
                                           ; SOURCE LINE # 146
                                           ; SOURCE LINE # 147
0073 120000      R     LCALL   _LCD12864_write_data
                                           ; SOURCE LINE # 148
0076 E500        R     MOV     A,i
0078 30E03D            JNB     ACC.0,?C0027
                                           ; SOURCE LINE # 149
                                           ; SOURCE LINE # 150
007B 0500        R     INC     row+01H
007D E500        R     MOV     A,row+01H
007F 7002              JNZ     ?C0351
0081 0500        R     INC     row
C51 COMPILER V9.00   MAIN                                                                  04/20/2021 21:02:48 PAGE 8   

0083         ?C0351:
                                           ; SOURCE LINE # 151
0083 E500        R     MOV     A,row
0085 7029              JNZ     ?C0029
0087 E500        R     MOV     A,row+01H
0089 2470              ADD     A,#070H
008B 6018              JZ      ?C0032
008D 24F8              ADD     A,#0F8H
008F 600C              JZ      ?C0031
0091 2410              ADD     A,#010H
0093 701B              JNZ     ?C0029
                                           ; SOURCE LINE # 152
                                           ; SOURCE LINE # 153
0095         ?C0030:
0095 750000      R     MOV     row,#00H
0098 750090      R     MOV     row+01H,#090H
                                           ; SOURCE LINE # 154
                                           ; SOURCE LINE # 155
009B 800E              SJMP    ?C0412
                                           ; SOURCE LINE # 156
009D         ?C0031:
009D 750000      R     MOV     row,#00H
00A0 750088      R     MOV     row+01H,#088H
                                           ; SOURCE LINE # 157
00A3         ?C0411:
                                           ; SOURCE LINE # 158
00A3 8006              SJMP    ?C0412
                                           ; SOURCE LINE # 159
00A5         ?C0032:
00A5 750000      R     MOV     row,#00H
00A8 750098      R     MOV     row+01H,#098H
                                           ; SOURCE LINE # 160
00AB         ?C0412:
00AB AF00        R     MOV     R7,row+01H
00AD 120000      R     LCALL   _LCD12864_write_cmd
                                           ; SOURCE LINE # 161
                                           ; SOURCE LINE # 162
00B0         ?C0029:
                                           ; SOURCE LINE # 163
00B0 E500        R     MOV     A,row+01H
00B2 64A0              XRL     A,#0A0H
00B4 4500        R     ORL     A,row
00B6 6004              JZ      ?C0034
00B8         ?C0033:
                                           ; SOURCE LINE # 164
                                           ; SOURCE LINE # 165
00B8         ?C0027:
00B8 0500        R     INC     i
00BA 80A5              SJMP    ?C0025
                                           ; SOURCE LINE # 166
00BC         ?C0034:
00BC 22                RET     
             ; FUNCTION _LCD12864_showstring (END)

             ; FUNCTION _LCD12864_display_image (BEGIN)
                                           ; SOURCE LINE # 167
0000 8B00        R     MOV     p,R3
0002 8A00        R     MOV     p+01H,R2
0004 8900        R     MOV     p+02H,R1
                                           ; SOURCE LINE # 168
                                           ; SOURCE LINE # 170
0006 7F34              MOV     R7,#034H
C51 COMPILER V9.00   MAIN                                                                  04/20/2021 21:02:48 PAGE 9   

0008 120000      R     LCALL   _LCD12864_write_cmd
                                           ; SOURCE LINE # 171
000B E4                CLR     A
000C F500        R     MOV     i,A
000E         ?C0035:
                                           ; SOURCE LINE # 172
                                           ; SOURCE LINE # 173
000E 120000      R     LCALL   L?0443
                                           ; SOURCE LINE # 174
0011 7F80              MOV     R7,#080H
0013 120000      R     LCALL   _LCD12864_write_cmd
                                           ; SOURCE LINE # 175
0016 E4                CLR     A
0017 F500        R     MOV     j,A
0019         ?C0038:
                                           ; SOURCE LINE # 176
                                           ; SOURCE LINE # 177
0019 120000      R     LCALL   L?0453
                                           ; SOURCE LINE # 178
001C 7401              MOV     A,#01H
001E 2500        R     ADD     A,p+02H
0020 F500        R     MOV     p+02H,A
0022 E4                CLR     A
0023 3500        R     ADDC    A,p+01H
0025 F500        R     MOV     p+01H,A
                                           ; SOURCE LINE # 179
0027 0500        R     INC     j
0029 E500        R     MOV     A,j
002B C3                CLR     C
002C 9410              SUBB    A,#010H
002E 40E9              JC      ?C0038
                                           ; SOURCE LINE # 180
0030         ?C0037:
0030 0500        R     INC     i
0032 E500        R     MOV     A,i
0034 C3                CLR     C
0035 9420              SUBB    A,#020H
0037 40D5              JC      ?C0035
0039         ?C0036:
                                           ; SOURCE LINE # 181
0039 E4                CLR     A
003A F500        R     MOV     i,A
003C         ?C0041:
                                           ; SOURCE LINE # 182
                                           ; SOURCE LINE # 183
003C 120000      R     LCALL   L?0443
                                           ; SOURCE LINE # 184
003F 7F88              MOV     R7,#088H
0041 120000      R     LCALL   _LCD12864_write_cmd
                                           ; SOURCE LINE # 185
0044 E4                CLR     A
0045 F500        R     MOV     j,A
0047         ?C0044:
                                           ; SOURCE LINE # 186
                                           ; SOURCE LINE # 187
0047 120000      R     LCALL   L?0453
                                           ; SOURCE LINE # 188
004A 7401              MOV     A,#01H
004C 2500        R     ADD     A,p+02H
004E F500        R     MOV     p+02H,A
0050 E4                CLR     A
0051 3500        R     ADDC    A,p+01H
C51 COMPILER V9.00   MAIN                                                                  04/20/2021 21:02:48 PAGE 10  

0053 F500        R     MOV     p+01H,A
                                           ; SOURCE LINE # 189
0055 0500        R     INC     j
0057 E500        R     MOV     A,j
0059 C3                CLR     C
005A 9410              SUBB    A,#010H
005C 40E9              JC      ?C0044
                                           ; SOURCE LINE # 190
005E         ?C0043:
005E 0500        R     INC     i
0060 E500        R     MOV     A,i
0062 C3                CLR     C
0063 9420              SUBB    A,#020H
0065 40D5              JC      ?C0041
0067         ?C0042:
                                           ; SOURCE LINE # 191
0067 7F36              MOV     R7,#036H
0069 120000      R     LCALL   _LCD12864_write_cmd
                                           ; SOURCE LINE # 192
006C 7F30              MOV     R7,#030H
006E 020000      R     LJMP    _LCD12864_write_cmd
             ; FUNCTION _LCD12864_display_image (END)

             ; FUNCTION L?0442 (BEGIN)
0000 25E0              ADD     A,ACC
0002 25E0              ADD     A,ACC
0004 FE                MOV     R6,A
0005 04                INC     A
0006 FD                MOV     R5,A
0007 EF                MOV     A,R7
0008 2402              ADD     A,#02H
000A FB                MOV     R3,A
000B EE                MOV     A,R6
000C 2403              ADD     A,#03H
000E F500        R     MOV     ?_LCD12864_drawrectangle?BYTE+03H,A
0010 750001      R     MOV     ?_LCD12864_drawrectangle?BYTE+04H,#01H
             ; FUNCTION _LCD12864_drawrectangle (BEGIN)
                                           ; SOURCE LINE # 194
0013 8F00        R     MOV     x1,R7
0015 8D00        R     MOV     y1,R5
0017 8B00        R     MOV     x2,R3
                                           ; SOURCE LINE # 195
                                           ; SOURCE LINE # 200
0019 7500FF      R     MOV     fill,#0FFH
                                           ; SOURCE LINE # 201
001C E500        R     MOV     A,x1
001E 540F              ANL     A,#0FH
0020 FF                MOV     R7,A
0021 6009              JZ      ?C0048
0023 E500        R     MOV     A,x1
0025 2410              ADD     A,#010H
0027 C3                CLR     C
0028 9F                SUBB    A,R7
0029 FF                MOV     R7,A
002A 8002              SJMP    ?C0049
002C         ?C0048:
002C AF00        R     MOV     R7,x1
002E         ?C0049:
002E 8F00        R     MOV     k,R7
                                           ; SOURCE LINE # 202
0030 E500        R     MOV     A,x2
0032 540F              ANL     A,#0FH
C51 COMPILER V9.00   MAIN                                                                  04/20/2021 21:02:48 PAGE 11  

0034 FD                MOV     R5,A
0035 BD0F17            CJNE    R5,#0FH,?C0050
0038 E500        R     MOV     A,x2
003A 2401              ADD     A,#01H
003C FF                MOV     R7,A
003D E4                CLR     A
003E 33                RLC     A
003F FE                MOV     R6,A
0040 E500        R     MOV     A,k
0042 FB                MOV     R3,A
0043 33                RLC     A
0044 95E0              SUBB    A,ACC
0046 FA                MOV     R2,A
0047 C3                CLR     C
0048 EF                MOV     A,R7
0049 9B                SUBB    A,R3
004A FF                MOV     R7,A
004B EE                MOV     A,R6
004C 9A                SUBB    A,R2
004D 8018              SJMP    ?C0413
004F         ?C0050:
004F ED                MOV     A,R5
0050 FF                MOV     R7,A
0051 C3                CLR     C
0052 E500        R     MOV     A,x2
0054 9F                SUBB    A,R7
0055 FF                MOV     R7,A
0056 E4                CLR     A
0057 9400              SUBB    A,#00H
0059 FE                MOV     R6,A
005A AD00        R     MOV     R5,k
005C ED                MOV     A,R5
005D 33                RLC     A
005E 95E0              SUBB    A,ACC
0060 FC                MOV     R4,A
0061 C3                CLR     C
0062 EF                MOV     A,R7
0063 9D                SUBB    A,R5
0064 FF                MOV     R7,A
0065 EE                MOV     A,R6
0066 9C                SUBB    A,R4
0067         ?C0413:
0067 C4                SWAP    A
0068 F8                MOV     R0,A
0069 54F0              ANL     A,#0F0H
006B C8                XCH     A,R0
006C EF                MOV     A,R7
006D C4                SWAP    A
006E 540F              ANL     A,#0FH
0070 48                ORL     A,R0
0071 FF                MOV     R7,A
0072         ?C0051:
0072 8F00        R     MOV     k,R7
                                           ; SOURCE LINE # 203
0074 7F36              MOV     R7,#036H
0076 120000      R     LCALL   _LCD12864_write_cmd
                                           ; SOURCE LINE # 204
0079 E4                CLR     A
007A F500        R     MOV     i,A
007C         ?C0052:
007C C3                CLR     C
007D E500        R     MOV     A,y2
C51 COMPILER V9.00   MAIN                                                                  04/20/2021 21:02:48 PAGE 12  

007F 9500        R     SUBB    A,y1
0081 FF                MOV     R7,A
0082 E500        R     MOV     A,i
0084 D3                SETB    C
0085 9F                SUBB    A,R7
0086 4003              JC      $ + 5H
0088 020000      R     LJMP    ?C0053
                                           ; SOURCE LINE # 205
                                           ; SOURCE LINE # 206
008B E500        R     MOV     A,y1
008D 2500        R     ADD     A,i
008F 541F              ANL     A,#01FH
0091 F500        R     MOV     y,A
                                           ; SOURCE LINE # 207
0093 E500        R     MOV     A,y1
0095 2500        R     ADD     A,i
0097 FF                MOV     R7,A
0098 E4                CLR     A
0099 33                RLC     A
009A FE                MOV     R6,A
009B EF                MOV     A,R7
009C 7805              MOV     R0,#05H
009E         ?C0352:
009E CE                XCH     A,R6
009F C3                CLR     C
00A0 13                RRC     A
00A1 CE                XCH     A,R6
00A2 13                RRC     A
00A3 D8F9              DJNZ    R0,?C0352
00A5 75F008            MOV     B,#08H
00A8 A4                MUL     AB
00A9 FF                MOV     R7,A
00AA E500        R     MOV     A,x1
00AC C4                SWAP    A
00AD 540F              ANL     A,#0FH
00AF 2F                ADD     A,R7
;---- Variable 'x' assigned to Register 'R7' ----
                                           ; SOURCE LINE # 208
00B0 F500        R     MOV     z,A
                                           ; SOURCE LINE # 209
00B2 AD00        R     MOV     R5,y
00B4 FF                MOV     R7,A
00B5 120000      R     LCALL   _LCD12864_set_GDRAMadd
                                           ; SOURCE LINE # 210
00B8 C3                CLR     C
00B9 E500        R     MOV     A,k
00BB 6480              XRL     A,#080H
00BD 9480              SUBB    A,#080H
00BF 5003              JNC     $ + 5H
00C1 020000      R     LJMP    ?C0055
                                           ; SOURCE LINE # 211
                                           ; SOURCE LINE # 212
00C4 E500        R     MOV     A,x1
00C6 540F              ANL     A,#0FH
00C8 7003              JNZ     $ + 5H
00CA 020000      R     LJMP    ?C0056
                                           ; SOURCE LINE # 213
                                           ; SOURCE LINE # 214
00CD 120000      R     LCALL   L?0445
                                           ; SOURCE LINE # 215
00D0 120000      R     LCALL   L?0447
                                           ; SOURCE LINE # 216
C51 COMPILER V9.00   MAIN                                                                  04/20/2021 21:02:48 PAGE 13  

00D3 E500        R     MOV     A,flag
00D5 6014              JZ      ?C0057
                                           ; SOURCE LINE # 217
00D7 E500        R     MOV     A,x1
00D9 540F              ANL     A,#0FH
00DB FF                MOV     R7,A
00DC E500        R     MOV     A,fill
00DE A807              MOV     R0,AR7
00E0 08                INC     R0
00E1 8002              SJMP    ?C0354
00E3         ?C0353:
00E3 C3                CLR     C
00E4 13                RRC     A
00E5         ?C0354:
00E5 D8FC              DJNZ    R0,?C0353
00E7 4500        R     ORL     A,Hbit
00E9 8013              SJMP    ?C0417
00EB         ?C0057:
                                           ; SOURCE LINE # 219
00EB E500        R     MOV     A,x1
00ED 540F              ANL     A,#0FH
00EF FF                MOV     R7,A
00F0 E500        R     MOV     A,fill
00F2 A807              MOV     R0,AR7
00F4 08                INC     R0
00F5 8002              SJMP    ?C0356
00F7         ?C0355:
00F7 C3                CLR     C
00F8 13                RRC     A
00F9         ?C0356:
00F9 D8FC              DJNZ    R0,?C0355
00FB F4                CPL     A
00FC 5500        R     ANL     A,Hbit
00FE         ?C0417:
00FE FF                MOV     R7,A
00FF 120000      R     LCALL   _LCD12864_write_data
0102         ?C0058:
                                           ; SOURCE LINE # 220
0102 E500        R     MOV     A,x1
0104 540F              ANL     A,#0FH
0106 FF                MOV     R7,A
0107 D3                SETB    C
0108 9408              SUBB    A,#08H
010A 402E              JC      ?C0059
                                           ; SOURCE LINE # 221
                                           ; SOURCE LINE # 222
010C E500        R     MOV     A,flag
010E 6013              JZ      ?C0060
                                           ; SOURCE LINE # 223
0110 EF                MOV     A,R7
0111 24F8              ADD     A,#0F8H
0113 FF                MOV     R7,A
0114 E500        R     MOV     A,fill
0116 A807              MOV     R0,AR7
0118 08                INC     R0
0119 8002              SJMP    ?C0358
011B         ?C0357:
011B C3                CLR     C
011C 13                RRC     A
011D         ?C0358:
011D D8FC              DJNZ    R0,?C0357
011F 4500        R     ORL     A,Lbit
C51 COMPILER V9.00   MAIN                                                                  04/20/2021 21:02:48 PAGE 14  

0121 8026              SJMP    ?C0419
0123         ?C0060:
                                           ; SOURCE LINE # 225
0123 E500        R     MOV     A,x1
0125 540F              ANL     A,#0FH
0127 24F8              ADD     A,#0F8H
0129 FF                MOV     R7,A
012A E500        R     MOV     A,fill
012C A807              MOV     R0,AR7
012E 08                INC     R0
012F 8002              SJMP    ?C0360
0131         ?C0359:
0131 C3                CLR     C
0132 13                RRC     A
0133         ?C0360:
0133 D8FC              DJNZ    R0,?C0359
0135 F4                CPL     A
0136 5500        R     ANL     A,Lbit
0138         ?C0418:
                                           ; SOURCE LINE # 226
0138 800F              SJMP    ?C0419
013A         ?C0059:
                                           ; SOURCE LINE # 228
                                           ; SOURCE LINE # 229
013A E500        R     MOV     A,flag
013C 6006              JZ      ?C0063
                                           ; SOURCE LINE # 230
013E E500        R     MOV     A,fill
0140 4500        R     ORL     A,Lbit
0142 8005              SJMP    ?C0414
0144         ?C0063:
                                           ; SOURCE LINE # 232
0144 E500        R     MOV     A,fill
0146 F4                CPL     A
0147 5500        R     ANL     A,Lbit
0149         ?C0414:
0149         ?C0419:
0149 FF                MOV     R7,A
014A 120000      R     LCALL   _LCD12864_write_data
                                           ; SOURCE LINE # 233
014D         ?C0062:
                                           ; SOURCE LINE # 234
014D 0500        R     INC     z
                                           ; SOURCE LINE # 235
014F         ?C0056:
                                           ; SOURCE LINE # 236
014F E4                CLR     A
0150 F500        R     MOV     j,A
0152         ?C0065:
0152 AF00        R     MOV     R7,k
0154 EF                MOV     A,R7
0155 33                RLC     A
0156 95E0              SUBB    A,ACC
0158 FE                MOV     R6,A
0159 C3                CLR     C
015A E500        R     MOV     A,j
015C 9F                SUBB    A,R7
015D EE                MOV     A,R6
015E 6480              XRL     A,#080H
0160 F8                MOV     R0,A
0161 7480              MOV     A,#080H
0163 98                SUBB    A,R0
C51 COMPILER V9.00   MAIN                                                                  04/20/2021 21:02:48 PAGE 15  

0164 5030              JNC     ?C0066
                                           ; SOURCE LINE # 237
                                           ; SOURCE LINE # 238
0166 120000      R     LCALL   L?0445
                                           ; SOURCE LINE # 239
0169 120000      R     LCALL   L?0447
                                           ; SOURCE LINE # 240
016C E500        R     MOV     A,flag
016E 600E              JZ      ?C0068
                                           ; SOURCE LINE # 241
                                           ; SOURCE LINE # 242
0170 E500        R     MOV     A,fill
0172 4500        R     ORL     A,Hbit
0174 FF                MOV     R7,A
0175 120000      R     LCALL   _LCD12864_write_data
                                           ; SOURCE LINE # 243
0178 E500        R     MOV     A,fill
017A 4500        R     ORL     A,Lbit
                                           ; SOURCE LINE # 244
017C 800E              SJMP    ?C0415
017E         ?C0068:
                                           ; SOURCE LINE # 246
                                           ; SOURCE LINE # 247
017E E500        R     MOV     A,fill
0180 F4                CPL     A
0181 5500        R     ANL     A,Hbit
0183 FF                MOV     R7,A
0184 120000      R     LCALL   _LCD12864_write_data
                                           ; SOURCE LINE # 248
0187 E500        R     MOV     A,fill
0189 F4                CPL     A
018A 5500        R     ANL     A,Lbit
018C         ?C0415:
018C FF                MOV     R7,A
018D 120000      R     LCALL   _LCD12864_write_data
                                           ; SOURCE LINE # 249
0190         ?C0069:
                                           ; SOURCE LINE # 250
0190 0500        R     INC     z
                                           ; SOURCE LINE # 251
0192 0500        R     INC     j
0194 80BC              SJMP    ?C0065
0196         ?C0066:
                                           ; SOURCE LINE # 252
0196 E500        R     MOV     A,x2
0198 540F              ANL     A,#0FH
019A 640F              XRL     A,#0FH
019C 7003              JNZ     $ + 5H
019E 020000      R     LJMP    ?C0054
                                           ; SOURCE LINE # 253
                                           ; SOURCE LINE # 254
01A1 120000      R     LCALL   L?0446
                                           ; SOURCE LINE # 255
01A4 120000      R     LCALL   L?0448
                                           ; SOURCE LINE # 256
01A7 E500        R     MOV     A,x2
01A9 540F              ANL     A,#0FH
01AB D3                SETB    C
01AC 9407              SUBB    A,#07H
01AE 4011              JC      ?C0071
                                           ; SOURCE LINE # 257
                                           ; SOURCE LINE # 258
C51 COMPILER V9.00   MAIN                                                                  04/20/2021 21:02:48 PAGE 16  

01B0 E500        R     MOV     A,flag
01B2 6006              JZ      ?C0072
                                           ; SOURCE LINE # 259
01B4 E500        R     MOV     A,fill
01B6 4500        R     ORL     A,Hbit
01B8 803C              SJMP    ?C0421
01BA         ?C0072:
                                           ; SOURCE LINE # 261
01BA E500        R     MOV     A,fill
01BC F4                CPL     A
01BD 5500        R     ANL     A,Hbit
01BF         ?C0416:
                                           ; SOURCE LINE # 262
01BF 8035              SJMP    ?C0421
01C1         ?C0071:
                                           ; SOURCE LINE # 264
                                           ; SOURCE LINE # 265
01C1 E500        R     MOV     A,flag
01C3 6019              JZ      ?C0075
                                           ; SOURCE LINE # 266
01C5 E500        R     MOV     A,x2
01C7 540F              ANL     A,#0FH
01C9 FF                MOV     R7,A
01CA C3                CLR     C
01CB 7407              MOV     A,#07H
01CD 9F                SUBB    A,R7
01CE FF                MOV     R7,A
01CF E500        R     MOV     A,fill
01D1 A807              MOV     R0,AR7
01D3 08                INC     R0
01D4 8002              SJMP    ?C0362
01D6         ?C0361:
01D6 C3                CLR     C
01D7 33                RLC     A
01D8         ?C0362:
01D8 D8FC              DJNZ    R0,?C0361
01DA 4500        R     ORL     A,Hbit
01DC         ?C0420:
01DC 8018              SJMP    ?C0421
01DE         ?C0075:
                                           ; SOURCE LINE # 268
01DE E500        R     MOV     A,x2
01E0 540F              ANL     A,#0FH
01E2 FF                MOV     R7,A
01E3 C3                CLR     C
01E4 7407              MOV     A,#07H
01E6 9F                SUBB    A,R7
01E7 FF                MOV     R7,A
01E8 E500        R     MOV     A,fill
01EA A807              MOV     R0,AR7
01EC 08                INC     R0
01ED 8002              SJMP    ?C0364
01EF         ?C0363:
01EF C3                CLR     C
01F0 33                RLC     A
01F1         ?C0364:
01F1 D8FC              DJNZ    R0,?C0363
01F3 F4                CPL     A
01F4 5500        R     ANL     A,Hbit
01F6         ?C0421:
01F6 FF                MOV     R7,A
01F7 120000      R     LCALL   _LCD12864_write_data
C51 COMPILER V9.00   MAIN                                                                  04/20/2021 21:02:48 PAGE 17  

                                           ; SOURCE LINE # 269
01FA         ?C0074:
                                           ; SOURCE LINE # 270
01FA E500        R     MOV     A,flag
01FC 6018              JZ      ?C0077
                                           ; SOURCE LINE # 271
01FE E500        R     MOV     A,x2
0200 540F              ANL     A,#0FH
0202 FF                MOV     R7,A
0203 C3                CLR     C
0204 740F              MOV     A,#0FH
0206 9F                SUBB    A,R7
0207 FF                MOV     R7,A
0208 E500        R     MOV     A,fill
020A A807              MOV     R0,AR7
020C 08                INC     R0
020D 8002              SJMP    ?C0366
020F         ?C0365:
020F C3                CLR     C
0210 33                RLC     A
0211         ?C0366:
0211 D8FC              DJNZ    R0,?C0365
0213 020000      R     LJMP    ?C0424
0216         ?C0077:
                                           ; SOURCE LINE # 273
0216 E500        R     MOV     A,x2
0218 540F              ANL     A,#0FH
021A FF                MOV     R7,A
021B C3                CLR     C
021C 740F              MOV     A,#0FH
021E 9F                SUBB    A,R7
021F FF                MOV     R7,A
0220 E500        R     MOV     A,fill
0222 A807              MOV     R0,AR7
0224 08                INC     R0
0225 8002              SJMP    ?C0368
0227         ?C0367:
0227 C3                CLR     C
0228 33                RLC     A
0229         ?C0368:
0229 D8FC              DJNZ    R0,?C0367
                                           ; SOURCE LINE # 274
                                           ; SOURCE LINE # 275
022B 020000      R     LJMP    ?C0425
022E         ?C0055:
                                           ; SOURCE LINE # 277
                                           ; SOURCE LINE # 278
022E 120000      R     LCALL   L?0446
                                           ; SOURCE LINE # 279
0231 120000      R     LCALL   L?0448
                                           ; SOURCE LINE # 280
0234 E500        R     MOV     A,x2
0236 540F              ANL     A,#0FH
0238 D3                SETB    C
0239 9407              SUBB    A,#07H
023B 5003              JNC     $ + 5H
023D 020000      R     LJMP    ?C0080
                                           ; SOURCE LINE # 281
                                           ; SOURCE LINE # 282
0240 E500        R     MOV     A,x1
0242 540F              ANL     A,#0FH
0244 FF                MOV     R7,A
C51 COMPILER V9.00   MAIN                                                                  04/20/2021 21:02:48 PAGE 18  

0245 D3                SETB    C
0246 9407              SUBB    A,#07H
0248 505A              JNC     ?C0081
                                           ; SOURCE LINE # 283
                                           ; SOURCE LINE # 284
024A E500        R     MOV     A,flag
024C 6028              JZ      ?C0082
                                           ; SOURCE LINE # 285
                                           ; SOURCE LINE # 286
024E E500        R     MOV     A,fill
0250 A807              MOV     R0,AR7
0252 08                INC     R0
0253 8002              SJMP    ?C0370
0255         ?C0369:
0255 C3                CLR     C
0256 13                RRC     A
0257         ?C0370:
0257 D8FC              DJNZ    R0,?C0369
0259 4500        R     ORL     A,Hbit
025B FF                MOV     R7,A
025C 120000      R     LCALL   _LCD12864_write_data
                                           ; SOURCE LINE # 287
025F E500        R     MOV     A,x2
0261 540F              ANL     A,#0FH
0263 FF                MOV     R7,A
0264 C3                CLR     C
0265 740F              MOV     A,#0FH
0267 9F                SUBB    A,R7
0268 FF                MOV     R7,A
0269 E500        R     MOV     A,fill
026B A807              MOV     R0,AR7
026D 08                INC     R0
026E 8002              SJMP    ?C0372
0270         ?C0371:
0270 C3                CLR     C
0271 33                RLC     A
0272         ?C0372:
0272 D8FC              DJNZ    R0,?C0371
0274         ?C0422:
                                           ; SOURCE LINE # 288
0274 8060              SJMP    ?C0424
0276         ?C0082:
                                           ; SOURCE LINE # 290
                                           ; SOURCE LINE # 291
0276 E500        R     MOV     A,x1
0278 540F              ANL     A,#0FH
027A FF                MOV     R7,A
027B E500        R     MOV     A,fill
027D A807              MOV     R0,AR7
027F 08                INC     R0
0280 8002              SJMP    ?C0374
0282         ?C0373:
0282 C3                CLR     C
0283 13                RRC     A
0284         ?C0374:
0284 D8FC              DJNZ    R0,?C0373
0286 F4                CPL     A
0287 5500        R     ANL     A,Hbit
0289 FF                MOV     R7,A
028A 120000      R     LCALL   _LCD12864_write_data
                                           ; SOURCE LINE # 292
028D E500        R     MOV     A,x2
C51 COMPILER V9.00   MAIN                                                                  04/20/2021 21:02:48 PAGE 19  

028F 540F              ANL     A,#0FH
0291 FF                MOV     R7,A
0292 C3                CLR     C
0293 740F              MOV     A,#0FH
0295 9F                SUBB    A,R7
0296 FF                MOV     R7,A
0297 E500        R     MOV     A,fill
0299 A807              MOV     R0,AR7
029B 08                INC     R0
029C 8002              SJMP    ?C0376
029E         ?C0375:
029E C3                CLR     C
029F 33                RLC     A
02A0         ?C0376:
02A0 D8FC              DJNZ    R0,?C0375
02A2         ?C0423:
                                           ; SOURCE LINE # 293
                                           ; SOURCE LINE # 294
02A2 805F              SJMP    ?C0425
02A4         ?C0081:
                                           ; SOURCE LINE # 296
                                           ; SOURCE LINE # 297
02A4 AF00        R     MOV     R7,Hbit
02A6 120000      R     LCALL   _LCD12864_write_data
                                           ; SOURCE LINE # 298
02A9 E500        R     MOV     A,flag
02AB 602D              JZ      ?C0085
                                           ; SOURCE LINE # 299
02AD E500        R     MOV     A,x2
02AF 540F              ANL     A,#0FH
02B1 FF                MOV     R7,A
02B2 C3                CLR     C
02B3 740F              MOV     A,#0FH
02B5 9F                SUBB    A,R7
02B6 FF                MOV     R7,A
02B7 E500        R     MOV     A,fill
02B9 A807              MOV     R0,AR7
02BB 08                INC     R0
02BC 8002              SJMP    ?C0378
02BE         ?C0377:
02BE C3                CLR     C
02BF 33                RLC     A
02C0         ?C0378:
02C0 D8FC              DJNZ    R0,?C0377
02C2 FF                MOV     R7,A
02C3 E500        R     MOV     A,x1
02C5 540F              ANL     A,#0FH
02C7 24F8              ADD     A,#0F8H
02C9 FE                MOV     R6,A
02CA E500        R     MOV     A,fill
02CC A806              MOV     R0,AR6
02CE 08                INC     R0
02CF 8002              SJMP    ?C0380
02D1         ?C0379:
02D1 C3                CLR     C
02D2 13                RRC     A
02D3         ?C0380:
02D3 D8FC              DJNZ    R0,?C0379
02D5 5F                ANL     A,R7
02D6         ?C0424:
02D6 4500        R     ORL     A,Lbit
02D8 802C              SJMP    ?C0426
C51 COMPILER V9.00   MAIN                                                                  04/20/2021 21:02:48 PAGE 20  

02DA         ?C0085:
                                           ; SOURCE LINE # 301
02DA E500        R     MOV     A,x2
02DC 540F              ANL     A,#0FH
02DE FF                MOV     R7,A
02DF C3                CLR     C
02E0 740F              MOV     A,#0FH
02E2 9F                SUBB    A,R7
02E3 FF                MOV     R7,A
02E4 E500        R     MOV     A,fill
02E6 A807              MOV     R0,AR7
02E8 08                INC     R0
02E9 8002              SJMP    ?C0382
02EB         ?C0381:
02EB C3                CLR     C
02EC 33                RLC     A
02ED         ?C0382:
02ED D8FC              DJNZ    R0,?C0381
02EF FF                MOV     R7,A
02F0 E500        R     MOV     A,x1
02F2 540F              ANL     A,#0FH
02F4 24F8              ADD     A,#0F8H
02F6 FE                MOV     R6,A
02F7 E500        R     MOV     A,fill
02F9 A806              MOV     R0,AR6
02FB 08                INC     R0
02FC 8002              SJMP    ?C0384
02FE         ?C0383:
02FE C3                CLR     C
02FF 13                RRC     A
0300         ?C0384:
0300 D8FC              DJNZ    R0,?C0383
0302 5F                ANL     A,R7
0303         ?C0425:
0303 F4                CPL     A
0304 5500        R     ANL     A,Lbit
0306         ?C0426:
0306 FF                MOV     R7,A
                                           ; SOURCE LINE # 302
                                           ; SOURCE LINE # 303
0307 805F              SJMP    ?C0427
0309         ?C0080:
                                           ; SOURCE LINE # 305
                                           ; SOURCE LINE # 306
0309 E500        R     MOV     A,flag
030B 602B              JZ      ?C0088
                                           ; SOURCE LINE # 307
030D E500        R     MOV     A,x2
030F 540F              ANL     A,#0FH
0311 FF                MOV     R7,A
0312 C3                CLR     C
0313 7407              MOV     A,#07H
0315 9F                SUBB    A,R7
0316 FF                MOV     R7,A
0317 E500        R     MOV     A,fill
0319 A807              MOV     R0,AR7
031B 08                INC     R0
031C 8002              SJMP    ?C0386
031E         ?C0385:
031E C3                CLR     C
031F 33                RLC     A
0320         ?C0386:
C51 COMPILER V9.00   MAIN                                                                  04/20/2021 21:02:48 PAGE 21  

0320 D8FC              DJNZ    R0,?C0385
0322 FF                MOV     R7,A
0323 E500        R     MOV     A,x1
0325 540F              ANL     A,#0FH
0327 FE                MOV     R6,A
0328 E500        R     MOV     A,fill
032A A806              MOV     R0,AR6
032C 08                INC     R0
032D 8002              SJMP    ?C0388
032F         ?C0387:
032F C3                CLR     C
0330 13                RRC     A
0331         ?C0388:
0331 D8FC              DJNZ    R0,?C0387
0333 5F                ANL     A,R7
0334 4500        R     ORL     A,Hbit
0336 802A              SJMP    ?C0428
0338         ?C0088:
                                           ; SOURCE LINE # 309
0338 E500        R     MOV     A,x2
033A 540F              ANL     A,#0FH
033C FF                MOV     R7,A
033D C3                CLR     C
033E 7407              MOV     A,#07H
0340 9F                SUBB    A,R7
0341 FF                MOV     R7,A
0342 E500        R     MOV     A,fill
0344 A807              MOV     R0,AR7
0346 08                INC     R0
0347 8002              SJMP    ?C0390
0349         ?C0389:
0349 C3                CLR     C
034A 33                RLC     A
034B         ?C0390:
034B D8FC              DJNZ    R0,?C0389
034D FF                MOV     R7,A
034E E500        R     MOV     A,x1
0350 540F              ANL     A,#0FH
0352 FE                MOV     R6,A
0353 E500        R     MOV     A,fill
0355 A806              MOV     R0,AR6
0357 08                INC     R0
0358 8002              SJMP    ?C0392
035A         ?C0391:
035A C3                CLR     C
035B 13                RRC     A
035C         ?C0392:
035C D8FC              DJNZ    R0,?C0391
035E 5F                ANL     A,R7
035F F4                CPL     A
0360 5500        R     ANL     A,Hbit
0362         ?C0428:
0362 FF                MOV     R7,A
0363 120000      R     LCALL   _LCD12864_write_data
0366         ?C0089:
                                           ; SOURCE LINE # 310
0366 AF00        R     MOV     R7,Lbit
0368         ?C0427:
0368 120000      R     LCALL   _LCD12864_write_data
                                           ; SOURCE LINE # 311
                                           ; SOURCE LINE # 312
                                           ; SOURCE LINE # 313
C51 COMPILER V9.00   MAIN                                                                  04/20/2021 21:02:48 PAGE 22  

036B         ?C0054:
036B 0500        R     INC     i
036D 020000      R     LJMP    ?C0052
0370         ?C0053:
                                           ; SOURCE LINE # 314
0370 7F30              MOV     R7,#030H
0372 020000      R     LJMP    _LCD12864_write_cmd
             ; FUNCTION _LCD12864_drawrectangle (END)

             ; FUNCTION _LCD12864_drawrectangle1 (BEGIN)
                                           ; SOURCE LINE # 316
0000 8F00        R     MOV     x1,R7
0002 8B00        R     MOV     x2,R3
;---- Variable 'y1' assigned to Register 'R5' ----
                                           ; SOURCE LINE # 317
                                           ; SOURCE LINE # 319
0004 8D00        R     MOV     i,R5
0006         ?C0091:
0006 E500        R     MOV     A,i
0008 D3                SETB    C
0009 9500        R     SUBB    A,y2
000B 501B              JNC     ?C0097
                                           ; SOURCE LINE # 320
000D 850000      R     MOV     j,x1
0010         ?C0094:
0010 E500        R     MOV     A,j
0012 D3                SETB    C
0013 9500        R     SUBB    A,x2
0015 500D              JNC     ?C0093
                                           ; SOURCE LINE # 321
                                           ; SOURCE LINE # 322
0017 AB00        R     MOV     R3,flag
0019 AD00        R     MOV     R5,i
001B AF00        R     MOV     R7,j
001D 120000      R     LCALL   _LCD12864_drawpoint
                                           ; SOURCE LINE # 323
0020 0500        R     INC     j
0022 80EC              SJMP    ?C0094
0024         ?C0093:
0024 0500        R     INC     i
0026 80DE              SJMP    ?C0091
                                           ; SOURCE LINE # 324
0028         ?C0097:
0028 22                RET     
             ; FUNCTION _LCD12864_drawrectangle1 (END)

             ; FUNCTION _LCD12864_drawpoint (BEGIN)
                                           ; SOURCE LINE # 325
0000 8F00        R     MOV     x,R7
0002 8D00        R     MOV     y,R5
0004 8B00        R     MOV     flag,R3
                                           ; SOURCE LINE # 326
                                           ; SOURCE LINE # 327
0006 750080      R     MOV     fill,#080H
                                           ; SOURCE LINE # 328
0009 7F36              MOV     R7,#036H
000B 120000      R     LCALL   _LCD12864_write_cmd
                                           ; SOURCE LINE # 329
000E E500        R     MOV     A,y
0010 541F              ANL     A,#01FH
0012 2480              ADD     A,#080H
0014 FF                MOV     R7,A
C51 COMPILER V9.00   MAIN                                                                  04/20/2021 21:02:48 PAGE 23  

0015 120000      R     LCALL   _LCD12864_write_cmd
                                           ; SOURCE LINE # 330
0018 E500        R     MOV     A,y
001A C4                SWAP    A
001B 13                RRC     A
001C 5407              ANL     A,#07H
001E 75F008            MOV     B,#08H
0021 A4                MUL     AB
0022 2480              ADD     A,#080H
0024 FF                MOV     R7,A
0025 E500        R     MOV     A,x
0027 C4                SWAP    A
0028 540F              ANL     A,#0FH
002A 2F                ADD     A,R7
002B FF                MOV     R7,A
002C 120000      R     LCALL   _LCD12864_write_cmd
                                           ; SOURCE LINE # 331
002F E500        R     MOV     A,y
0031 C4                SWAP    A
0032 13                RRC     A
0033 5407              ANL     A,#07H
0035 75F008            MOV     B,#08H
0038 A4                MUL     AB
0039 FF                MOV     R7,A
003A E500        R     MOV     A,x
003C C4                SWAP    A
003D 540F              ANL     A,#0FH
003F 2F                ADD     A,R7
0040 FF                MOV     R7,A
0041 E500        R     MOV     A,y
0043 541F              ANL     A,#01FH
0045 FD                MOV     R5,A
0046 120000      R     LCALL   _LCD12864_read_GDRAM
                                           ; SOURCE LINE # 332
0049 E500        R     MOV     A,x
004B 540F              ANL     A,#0FH
004D C3                CLR     C
004E 9408              SUBB    A,#08H
0050 4037              JC      ?C0098
                                           ; SOURCE LINE # 333
                                           ; SOURCE LINE # 334
0052 AF00        R     MOV     R7,Hbit
0054 120000      R     LCALL   _LCD12864_write_data
                                           ; SOURCE LINE # 335
0057 E500        R     MOV     A,flag
0059 6016              JZ      ?C0099
                                           ; SOURCE LINE # 336
005B E500        R     MOV     A,x
005D 540F              ANL     A,#0FH
005F 24F8              ADD     A,#0F8H
0061 FF                MOV     R7,A
0062 E500        R     MOV     A,fill
0064 A807              MOV     R0,AR7
0066 08                INC     R0
0067 8002              SJMP    ?C0394
0069         ?C0393:
0069 C3                CLR     C
006A 13                RRC     A
006B         ?C0394:
006B D8FC              DJNZ    R0,?C0393
006D 4500        R     ORL     A,Lbit
006F 8015              SJMP    ?C0429
C51 COMPILER V9.00   MAIN                                                                  04/20/2021 21:02:48 PAGE 24  

0071         ?C0099:
                                           ; SOURCE LINE # 338
0071 E500        R     MOV     A,x
0073 540F              ANL     A,#0FH
0075 24F8              ADD     A,#0F8H
0077 FF                MOV     R7,A
0078 E500        R     MOV     A,fill
007A A807              MOV     R0,AR7
007C 08                INC     R0
007D 8002              SJMP    ?C0396
007F         ?C0395:
007F C3                CLR     C
0080 13                RRC     A
0081         ?C0396:
0081 D8FC              DJNZ    R0,?C0395
0083 F4                CPL     A
0084 5500        R     ANL     A,Lbit
0086         ?C0429:
0086 FF                MOV     R7,A
                                           ; SOURCE LINE # 339
0087 8031              SJMP    ?C0430
0089         ?C0098:
                                           ; SOURCE LINE # 341
                                           ; SOURCE LINE # 342
0089 E500        R     MOV     A,flag
008B 6014              JZ      ?C0102
                                           ; SOURCE LINE # 343
008D E500        R     MOV     A,x
008F 540F              ANL     A,#0FH
0091 FF                MOV     R7,A
0092 E500        R     MOV     A,fill
0094 A807              MOV     R0,AR7
0096 08                INC     R0
0097 8002              SJMP    ?C0398
0099         ?C0397:
0099 C3                CLR     C
009A 13                RRC     A
009B         ?C0398:
009B D8FC              DJNZ    R0,?C0397
009D 4500        R     ORL     A,Hbit
009F 8013              SJMP    ?C0431
00A1         ?C0102:
                                           ; SOURCE LINE # 345
00A1 E500        R     MOV     A,x
00A3 540F              ANL     A,#0FH
00A5 FF                MOV     R7,A
00A6 E500        R     MOV     A,fill
00A8 A807              MOV     R0,AR7
00AA 08                INC     R0
00AB 8002              SJMP    ?C0400
00AD         ?C0399:
00AD C3                CLR     C
00AE 13                RRC     A
00AF         ?C0400:
00AF D8FC              DJNZ    R0,?C0399
00B1 F4                CPL     A
00B2 5500        R     ANL     A,Hbit
00B4         ?C0431:
00B4 FF                MOV     R7,A
00B5 120000      R     LCALL   _LCD12864_write_data
00B8         ?C0103:
                                           ; SOURCE LINE # 346
C51 COMPILER V9.00   MAIN                                                                  04/20/2021 21:02:48 PAGE 25  

00B8 AF00        R     MOV     R7,Lbit
00BA         ?C0430:
00BA 120000      R     LCALL   _LCD12864_write_data
                                           ; SOURCE LINE # 347
00BD         ?C0101:
                                           ; SOURCE LINE # 348
00BD 7F30              MOV     R7,#030H
00BF 020000      R     LJMP    _LCD12864_write_cmd
             ; FUNCTION _LCD12864_drawpoint (END)

             ; FUNCTION LCD12864_clear_GDRAM (BEGIN)
                                           ; SOURCE LINE # 350
                                           ; SOURCE LINE # 351
                                           ; SOURCE LINE # 353
0000 7F36              MOV     R7,#036H
0002 120000      R     LCALL   _LCD12864_write_cmd
                                           ; SOURCE LINE # 354
0005 E4                CLR     A
0006 F500        R     MOV     i,A
0008         ?C0105:
                                           ; SOURCE LINE # 355
                                           ; SOURCE LINE # 356
0008 E500        R     MOV     A,i
000A 2480              ADD     A,#080H
000C FF                MOV     R7,A
000D 120000      R     LCALL   _LCD12864_write_cmd
                                           ; SOURCE LINE # 357
0010 7F80              MOV     R7,#080H
0012 120000      R     LCALL   _LCD12864_write_cmd
                                           ; SOURCE LINE # 358
0015 E4                CLR     A
0016 F500        R     MOV     j,A
0018         ?C0108:
                                           ; SOURCE LINE # 359
                                           ; SOURCE LINE # 360
0018 E4                CLR     A
0019 FF                MOV     R7,A
001A 120000      R     LCALL   _LCD12864_write_data
                                           ; SOURCE LINE # 361
001D E4                CLR     A
001E FF                MOV     R7,A
001F 120000      R     LCALL   _LCD12864_write_data
                                           ; SOURCE LINE # 362
0022 0500        R     INC     j
0024 E500        R     MOV     A,j
0026 C3                CLR     C
0027 9408              SUBB    A,#08H
0029 40ED              JC      ?C0108
                                           ; SOURCE LINE # 363
002B         ?C0107:
002B 0500        R     INC     i
002D E500        R     MOV     A,i
002F C3                CLR     C
0030 9420              SUBB    A,#020H
0032 40D4              JC      ?C0105
0034         ?C0106:
                                           ; SOURCE LINE # 364
0034 E4                CLR     A
0035 F500        R     MOV     i,A
0037         ?C0111:
                                           ; SOURCE LINE # 365
                                           ; SOURCE LINE # 366
C51 COMPILER V9.00   MAIN                                                                  04/20/2021 21:02:48 PAGE 26  

0037 E500        R     MOV     A,i
0039 2480              ADD     A,#080H
003B FF                MOV     R7,A
003C 120000      R     LCALL   _LCD12864_write_cmd
                                           ; SOURCE LINE # 367
003F 7F88              MOV     R7,#088H
0041 120000      R     LCALL   _LCD12864_write_cmd
                                           ; SOURCE LINE # 368
0044 E4                CLR     A
0045 F500        R     MOV     j,A
0047         ?C0114:
                                           ; SOURCE LINE # 369
                                           ; SOURCE LINE # 370
0047 E4                CLR     A
0048 FF                MOV     R7,A
0049 120000      R     LCALL   _LCD12864_write_data
                                           ; SOURCE LINE # 371
004C E4                CLR     A
004D FF                MOV     R7,A
004E 120000      R     LCALL   _LCD12864_write_data
                                           ; SOURCE LINE # 372
0051 0500        R     INC     j
0053 E500        R     MOV     A,j
0055 C3                CLR     C
0056 9408              SUBB    A,#08H
0058 40ED              JC      ?C0114
                                           ; SOURCE LINE # 373
005A         ?C0113:
005A 0500        R     INC     i
005C E500        R     MOV     A,i
005E C3                CLR     C
005F 9420              SUBB    A,#020H
0061 40D4              JC      ?C0111
0063         ?C0112:
                                           ; SOURCE LINE # 374
0063 7F30              MOV     R7,#030H
0065 020000      R     LJMP    _LCD12864_write_cmd
             ; FUNCTION LCD12864_clear_GDRAM (END)

             ; FUNCTION L?0447 (BEGIN)
0000         L?0448:
0000 AD00        R     MOV     R5,y
0002 AF00        R     MOV     R7,z
             ; FUNCTION _LCD12864_set_GDRAMadd (BEGIN)
                                           ; SOURCE LINE # 376
0004 8F00        R     MOV     x,R7
;---- Variable 'y' assigned to Register 'R5' ----
                                           ; SOURCE LINE # 377
                                           ; SOURCE LINE # 378
0006 ED                MOV     A,R5
0007 2480              ADD     A,#080H
0009 FF                MOV     R7,A
000A 120000      R     LCALL   _LCD12864_write_cmd
                                           ; SOURCE LINE # 379
000D E500        R     MOV     A,x
000F 2480              ADD     A,#080H
0011 FF                MOV     R7,A
0012 020000      R     LJMP    _LCD12864_write_cmd
             ; FUNCTION _LCD12864_set_GDRAMadd (END)

             ; FUNCTION L?0445 (BEGIN)
0000         L?0446:
C51 COMPILER V9.00   MAIN                                                                  04/20/2021 21:02:48 PAGE 27  

0000 AD00        R     MOV     R5,y
0002 AF00        R     MOV     R7,z
             ; FUNCTION _LCD12864_read_GDRAM (BEGIN)
                                           ; SOURCE LINE # 381
0004 8F00        R     MOV     x,R7
0006 8D00        R     MOV     y,R5
                                           ; SOURCE LINE # 382
                                           ; SOURCE LINE # 383
0008 120000      R     LCALL   _LCD12864_set_GDRAMadd
                                           ; SOURCE LINE # 384
000B 120000      R     LCALL   LCD12864_read_data
                                           ; SOURCE LINE # 385
000E 120000      R     LCALL   LCD12864_read_data
0011 8F00        R     MOV     Hbit,R7
                                           ; SOURCE LINE # 386
0013 120000      R     LCALL   LCD12864_read_data
0016 8F00        R     MOV     Lbit,R7
                                           ; SOURCE LINE # 387
0018 AD00        R     MOV     R5,y
001A AF00        R     MOV     R7,x
001C 020000      R     LJMP    _LCD12864_set_GDRAMadd
             ; FUNCTION _LCD12864_read_GDRAM (END)

             ; FUNCTION LCD12864_read_data (BEGIN)
                                           ; SOURCE LINE # 389
                                           ; SOURCE LINE # 390
                                           ; SOURCE LINE # 391
0000 120000      R     LCALL   LCD12864_check_busy
                                           ; SOURCE LINE # 392
0003 75A0FF            MOV     P2,#0FFH
                                           ; SOURCE LINE # 393
0006 D297              SETB    LCD_RS
                                           ; SOURCE LINE # 394
0008 D296              SETB    LCD_RW
                                           ; SOURCE LINE # 395
000A D295              SETB    LCD_EN
                                           ; SOURCE LINE # 396
000C 00                NOP     
                                           ; SOURCE LINE # 397
000D 00                NOP     
                                           ; SOURCE LINE # 398
000E 00                NOP     
                                           ; SOURCE LINE # 399
000F 00                NOP     
                                           ; SOURCE LINE # 400
0010 00                NOP     
                                           ; SOURCE LINE # 401
0011 85A000      R     MOV     temp,P2
                                           ; SOURCE LINE # 402
0014 C295              CLR     LCD_EN
                                           ; SOURCE LINE # 403
0016 AF00        R     MOV     R7,temp
                                           ; SOURCE LINE # 404
0018         ?C0120:
0018 22                RET     
             ; FUNCTION LCD12864_read_data (END)

             ; FUNCTION L?0439 (BEGIN)
0000         L?0440:
0000 FF                MOV     R7,A
0001 E4                CLR     A
0002 33                RLC     A
C51 COMPILER V9.00   MAIN                                                                  04/20/2021 21:02:48 PAGE 28  

0003 FE                MOV     R6,A
0004         L?0441:
0004 7B00              MOV     R3,#00H
0006 7A00        R     MOV     R2,#HIGH numberstring
0008 7900        R     MOV     R1,#LOW numberstring
             ; FUNCTION _String_numtostring (BEGIN)
                                           ; SOURCE LINE # 15
000A 8B00        R     MOV     p,R3
000C 8A00        R     MOV     p+01H,R2
000E 8900        R     MOV     p+02H,R1
;---- Variable 'num' assigned to Register 'DPTR' ----
0010 8F82              MOV     DPL,R7
0012 8E83              MOV     DPH,R6
                                           ; SOURCE LINE # 16
                                           ; SOURCE LINE # 18
0014 E4                CLR     A
0015 F500        R     MOV     i,A
0017 F500        R     MOV     i+01H,A
                                           ; SOURCE LINE # 19
0019 F500        R     MOV     temp,A
001B F500        R     MOV     temp+01H,A
                                           ; SOURCE LINE # 20
001D E582              MOV     A,DPL
001F 4583              ORL     A,DPH
0021 7005              JNZ     ?C0121
0023 FE                MOV     R6,A
0024 7F01              MOV     R7,#01H
0026 8004              SJMP    ?C0122
0028         ?C0121:
0028 7E00              MOV     R6,#00H
002A 7F00              MOV     R7,#00H
002C         ?C0122:
002C 8E00        R     MOV     count,R6
002E 8F00        R     MOV     count+01H,R7
0030         ?C0123:
                                           ; SOURCE LINE # 21
0030 E582              MOV     A,DPL
0032 4583              ORL     A,DPH
0034 6037              JZ      ?C0125
                                           ; SOURCE LINE # 22
                                           ; SOURCE LINE # 23
0036 7C00              MOV     R4,#00H
0038 7D0A              MOV     R5,#0AH
003A AF82              MOV     R7,DPL
003C AE83              MOV     R6,DPH
003E 120000      E     LCALL   ?C?UIDIV
0041 AA04              MOV     R2,AR4
0043 AB05              MOV     R3,AR5
0045 AE00        R     MOV     R6,temp
0047 AF00        R     MOV     R7,temp+01H
0049 7C00              MOV     R4,#00H
004B 7D0A              MOV     R5,#0AH
004D 120000      E     LCALL   ?C?IMUL
0050 EF                MOV     A,R7
0051 2B                ADD     A,R3
0052 F500        R     MOV     temp+01H,A
0054 EE                MOV     A,R6
0055 3A                ADDC    A,R2
0056 F500        R     MOV     temp,A
                                           ; SOURCE LINE # 24
0058 AF82              MOV     R7,DPL
005A AE83              MOV     R6,DPH
C51 COMPILER V9.00   MAIN                                                                  04/20/2021 21:02:48 PAGE 29  

005C 120000      E     LCALL   ?C?UIDIV
005F 8E83              MOV     DPH,R6
0061 8F82              MOV     DPL,R7
                                           ; SOURCE LINE # 25
0063 0500        R     INC     count+01H
0065 E500        R     MOV     A,count+01H
0067 70C7              JNZ     ?C0123
0069 0500        R     INC     count
006B         ?C0401:
                                           ; SOURCE LINE # 26
006B 80C3              SJMP    ?C0123
                                           ; SOURCE LINE # 27
006D         ?C0125:
006D E500        R     MOV     A,count+01H
006F 1500        R     DEC     count+01H
0071 AE00        R     MOV     R6,count
0073 7002              JNZ     ?C0402
0075 1500        R     DEC     count
0077         ?C0402:
0077 4E                ORL     A,R6
0078 6036              JZ      ?C0126
                                           ; SOURCE LINE # 28
                                           ; SOURCE LINE # 29
007A AE00        R     MOV     R6,temp
007C AF00        R     MOV     R7,temp+01H
007E 7C00              MOV     R4,#00H
0080 7D0A              MOV     R5,#0AH
0082 120000      E     LCALL   ?C?UIDIV
0085 ED                MOV     A,R5
0086 2430              ADD     A,#030H
0088 AB00        R     MOV     R3,p
008A AA00        R     MOV     R2,p+01H
008C A900        R     MOV     R1,p+02H
008E 850082      R     MOV     DPL,i+01H
0091 850083      R     MOV     DPH,i
0094 120000      E     LCALL   ?C?CSTOPTR
                                           ; SOURCE LINE # 30
0097 AE00        R     MOV     R6,temp
0099 AF00        R     MOV     R7,temp+01H
009B 7C00              MOV     R4,#00H
009D 7D0A              MOV     R5,#0AH
009F 120000      E     LCALL   ?C?UIDIV
00A2 8E00        R     MOV     temp,R6
00A4 8F00        R     MOV     temp+01H,R7
                                           ; SOURCE LINE # 31
00A6 0500        R     INC     i+01H
00A8 E500        R     MOV     A,i+01H
00AA 70C1              JNZ     ?C0125
00AC 0500        R     INC     i
00AE         ?C0403:
00AE 80BD              SJMP    ?C0125
00B0         ?C0126:
                                           ; SOURCE LINE # 32
00B0 AB00        R     MOV     R3,p
00B2 AA00        R     MOV     R2,p+01H
00B4 A900        R     MOV     R1,p+02H
00B6 850082      R     MOV     DPL,i+01H
00B9 850083      R     MOV     DPH,i
00BC E4                CLR     A
00BD 020000      E     LJMP    ?C?CSTOPTR
             ; FUNCTION _String_numtostring (END)

C51 COMPILER V9.00   MAIN                                                                  04/20/2021 21:02:48 PAGE 30  

             ; FUNCTION _String_mergestring (BEGIN)
                                           ; SOURCE LINE # 65
0000 8B00        R     MOV     a,R3
0002 8A00        R     MOV     a+01H,R2
0004 8900        R     MOV     a+02H,R1
                                           ; SOURCE LINE # 66
                                           ; SOURCE LINE # 68
0006 E4                CLR     A
0007 F500        R     MOV     i,A
0009         ?C0129:
0009 E500        R     MOV     A,i
000B C3                CLR     C
000C 9500        R     SUBB    A,len1
000E 501B              JNC     ?C0132
                                           ; SOURCE LINE # 69
                                           ; SOURCE LINE # 70
0010 AB00        R     MOV     R3,a
0012 AA00        R     MOV     R2,a+01H
0014 A900        R     MOV     R1,a+02H
0016 850082      R     MOV     DPL,i
0019 758300            MOV     DPH,#00H
001C 120000      E     LCALL   ?C?CLDOPTR
001F FF                MOV     R7,A
0020 7400        R     MOV     A,#LOW temp
0022 2500        R     ADD     A,i
0024 F8                MOV     R0,A
0025 A607              MOV     @R0,AR7
                                           ; SOURCE LINE # 71
0027 0500        R     INC     i
0029 80DE              SJMP    ?C0129
                                           ; SOURCE LINE # 72
002B         ?C0132:
002B AD00        R     MOV     R5,len1
002D 7C00              MOV     R4,#00H
002F ED                MOV     A,R5
0030 2500        R     ADD     A,len2
0032 FF                MOV     R7,A
0033 EC                MOV     A,R4
0034 33                RLC     A
0035 FE                MOV     R6,A
0036 C3                CLR     C
0037 E500        R     MOV     A,i
0039 9F                SUBB    A,R7
003A EE                MOV     A,R6
003B 6480              XRL     A,#080H
003D F8                MOV     R0,A
003E 7480              MOV     A,#080H
0040 98                SUBB    A,R0
0041 5020              JNC     ?C0133
                                           ; SOURCE LINE # 73
                                           ; SOURCE LINE # 74
0043 C3                CLR     C
0044 E500        R     MOV     A,i
0046 9D                SUBB    A,R5
0047 FF                MOV     R7,A
0048 E4                CLR     A
0049 9C                SUBB    A,R4
004A AB00        R     MOV     R3,b
004C AA00        R     MOV     R2,b+01H
004E A900        R     MOV     R1,b+02H
0050 8F82              MOV     DPL,R7
0052 F583              MOV     DPH,A
C51 COMPILER V9.00   MAIN                                                                  04/20/2021 21:02:48 PAGE 31  

0054 120000      E     LCALL   ?C?CLDOPTR
0057 FF                MOV     R7,A
0058 7400        R     MOV     A,#LOW temp
005A 2500        R     ADD     A,i
005C F8                MOV     R0,A
005D A607              MOV     @R0,AR7
                                           ; SOURCE LINE # 75
005F 0500        R     INC     i
0061 80C8              SJMP    ?C0132
0063         ?C0133:
                                           ; SOURCE LINE # 76
0063 E4                CLR     A
0064 F500        R     MOV     i,A
0066         ?C0135:
0066 E500        R     MOV     A,len1
0068 2500        R     ADD     A,len2
006A FF                MOV     R7,A
006B E4                CLR     A
006C 33                RLC     A
006D FE                MOV     R6,A
006E C3                CLR     C
006F E500        R     MOV     A,i
0071 9F                SUBB    A,R7
0072 EE                MOV     A,R6
0073 6480              XRL     A,#080H
0075 F8                MOV     R0,A
0076 7480              MOV     A,#080H
0078 98                SUBB    A,R0
0079 5019              JNC     ?C0136
                                           ; SOURCE LINE # 77
                                           ; SOURCE LINE # 78
007B 7400        R     MOV     A,#LOW temp
007D 2500        R     ADD     A,i
007F F8                MOV     R0,A
0080 E6                MOV     A,@R0
0081 AB00        R     MOV     R3,c
0083 AA00        R     MOV     R2,c+01H
0085 A900        R     MOV     R1,c+02H
0087 850082      R     MOV     DPL,i
008A 758300            MOV     DPH,#00H
008D 120000      E     LCALL   ?C?CSTOPTR
                                           ; SOURCE LINE # 79
0090 0500        R     INC     i
0092 80D2              SJMP    ?C0135
0094         ?C0136:
                                           ; SOURCE LINE # 80
0094 AB00        R     MOV     R3,c
0096 AA00        R     MOV     R2,c+01H
0098 A900        R     MOV     R1,c+02H
009A 850082      R     MOV     DPL,i
009D 758300            MOV     DPH,#00H
00A0 E4                CLR     A
00A1 020000      E     LJMP    ?C?CSTOPTR
             ; FUNCTION _String_mergestring (END)

             ; FUNCTION _String_strcpy (BEGIN)
                                           ; SOURCE LINE # 82
0000 8B00        R     MOV     a,R3
0002 8A00        R     MOV     a+01H,R2
0004 8900        R     MOV     a+02H,R1
                                           ; SOURCE LINE # 83
                                           ; SOURCE LINE # 85
C51 COMPILER V9.00   MAIN                                                                  04/20/2021 21:02:48 PAGE 32  

;---- Variable 'i' assigned to Register 'R7' ----
0006 E4                CLR     A
0007 FF                MOV     R7,A
0008         ?C0139:
0008 EF                MOV     A,R7
0009 C3                CLR     C
000A 9500        R     SUBB    A,len+01H
000C E4                CLR     A
000D 9500        R     SUBB    A,len
000F 501F              JNC     ?C0140
                                           ; SOURCE LINE # 86
                                           ; SOURCE LINE # 87
0011 AB00        R     MOV     R3,b
0013 AA00        R     MOV     R2,b+01H
0015 A900        R     MOV     R1,b+02H
0017 8F82              MOV     DPL,R7
0019 758300            MOV     DPH,#00H
001C 120000      E     LCALL   ?C?CLDOPTR
001F AB00        R     MOV     R3,a
0021 AA00        R     MOV     R2,a+01H
0023 A900        R     MOV     R1,a+02H
0025 8F82              MOV     DPL,R7
0027 758300            MOV     DPH,#00H
002A 120000      E     LCALL   ?C?CSTOPTR
                                           ; SOURCE LINE # 88
002D 0F                INC     R7
002E 80D8              SJMP    ?C0139
0030         ?C0140:
                                           ; SOURCE LINE # 89
0030 AB00        R     MOV     R3,a
0032 AA00        R     MOV     R2,a+01H
0034 A900        R     MOV     R1,a+02H
0036 8F82              MOV     DPL,R7
0038 758300            MOV     DPH,#00H
003B E4                CLR     A
003C 020000      E     LJMP    ?C?CSTOPTR
             ; FUNCTION _String_strcpy (END)

             ; FUNCTION _String_strlen (BEGIN)
                                           ; SOURCE LINE # 91
0000 8B00        R     MOV     a,R3
0002 8A00        R     MOV     a+01H,R2
0004 8900        R     MOV     a+02H,R1
                                           ; SOURCE LINE # 92
                                           ; SOURCE LINE # 93
;---- Variable 'i' assigned to Register 'R7' ----
0006 E4                CLR     A
0007 FF                MOV     R7,A
0008         ?C0143:
                                           ; SOURCE LINE # 94
0008 AB00        R     MOV     R3,a
000A AA00        R     MOV     R2,a+01H
000C A900        R     MOV     R1,a+02H
000E 8F82              MOV     DPL,R7
0010 758300            MOV     DPH,#00H
0013 120000      E     LCALL   ?C?CLDOPTR
0016 6003              JZ      ?C0144
                                           ; SOURCE LINE # 95
0018 0F                INC     R7
0019 80ED              SJMP    ?C0143
001B         ?C0144:
                                           ; SOURCE LINE # 96
C51 COMPILER V9.00   MAIN                                                                  04/20/2021 21:02:48 PAGE 33  

                                           ; SOURCE LINE # 97
001B         ?C0145:
001B 22                RET     
             ; FUNCTION _String_strlen (END)

             ; FUNCTION setup (BEGIN)
                                           ; SOURCE LINE # 166
                                           ; SOURCE LINE # 167
                                           ; SOURCE LINE # 170
0000 E4                CLR     A
0001 F500        R     MOV     HISCORE,A
0003 F500        R     MOV     HISCORE+01H,A
                                           ; SOURCE LINE # 171
0005 F500        R     MOV     LINES,A
0007 F500        R     MOV     LINES+01H,A
                                           ; SOURCE LINE # 172
0009 F500        R     MOV     LEVEL,A
000B 750001      R     MOV     LEVEL+01H,#01H
                                           ; SOURCE LINE # 173
000E F500        R     MOV     page,A
                                           ; SOURCE LINE # 174
0010 F500        R     MOV     playernum,A
                                           ; SOURCE LINE # 175
0012 750001      R     MOV     gamefoward,#01H
                                           ; SOURCE LINE # 176
0015 75000A      R     MOV     playertotal,#0AH
                                           ; SOURCE LINE # 177
0018 F500        R     MOV     gamemode,A
                                           ; SOURCE LINE # 178
;---- Variable 'i' assigned to Register 'R7' ----
001A FF                MOV     R7,A
001B         ?C0146:
                                           ; SOURCE LINE # 179
;---- Variable 'j' assigned to Register 'R6' ----
001B E4                CLR     A
001C FE                MOV     R6,A
001D         ?C0149:
                                           ; SOURCE LINE # 180
001D EF                MOV     A,R7
001E 75F00F            MOV     B,#0FH
0021 A4                MUL     AB
0022 2400        R     ADD     A,#LOW rectangle
0024 F582              MOV     DPL,A
0026 E4                CLR     A
0027 3400        R     ADDC    A,#HIGH rectangle
0029 F583              MOV     DPH,A
002B E582              MOV     A,DPL
002D 2E                ADD     A,R6
002E F582              MOV     DPL,A
0030 E4                CLR     A
0031 3583              ADDC    A,DPH
0033 F583              MOV     DPH,A
0035 E4                CLR     A
0036 F0                MOVX    @DPTR,A
0037 0E                INC     R6
0038 BE0FE2            CJNE    R6,#0FH,?C0149
003B         ?C0148:
003B 0F                INC     R7
003C BF10DC            CJNE    R7,#010H,?C0146
003F         ?C0147:
                                           ; SOURCE LINE # 181
003F E4                CLR     A
C51 COMPILER V9.00   MAIN                                                                  04/20/2021 21:02:48 PAGE 34  

0040 FF                MOV     R7,A
0041         ?C0152:
0041 EF                MOV     A,R7
0042 C3                CLR     C
0043 9500        R     SUBB    A,playertotal
0045 5009              JNC     ?C0155
                                           ; SOURCE LINE # 182
0047 7400        R     MOV     A,#LOW playerrank
0049 2F                ADD     A,R7
004A F8                MOV     R0,A
004B A607              MOV     @R0,AR7
004D 0F                INC     R7
004E 80F1              SJMP    ?C0152
                                           ; SOURCE LINE # 183
0050         ?C0155:
0050 22                RET     
             ; FUNCTION setup (END)

             ; FUNCTION mainmenu (BEGIN)
                                           ; SOURCE LINE # 184
                                           ; SOURCE LINE # 185
0000         ?C0156:
                                           ; SOURCE LINE # 186
0000 3090FD            JNB     ENTER,?C0156
0003         ?C0157:
                                           ; SOURCE LINE # 187
0003 120000      R     LCALL   LCD12864_init
                                           ; SOURCE LINE # 188
0006 7BFF              MOV     R3,#0FFH
0008 7A00        R     MOV     R2,#HIGH ?SC_72
000A 7900        R     MOV     R1,#LOW ?SC_72
000C 750000      R     MOV     ?_LCD12864_showstring?BYTE+05H,#00H
000F 750002      R     MOV     ?_LCD12864_showstring?BYTE+06H,#02H
0012 E4                CLR     A
0013 FD                MOV     R5,A
0014 FC                MOV     R4,A
0015 120000      R     LCALL   _LCD12864_showstring
                                           ; SOURCE LINE # 189
0018 7A00        R     MOV     R2,#HIGH ?SC_81
001A 7900        R     MOV     R1,#LOW ?SC_81
001C 120000      R     LCALL   L?0435
                                           ; SOURCE LINE # 190
001F 7BFF              MOV     R3,#0FFH
0021 7A00        R     MOV     R2,#HIGH ?SC_98
0023 7900        R     MOV     R1,#LOW ?SC_98
0025 E4                CLR     A
0026 F500        R     MOV     ?_LCD12864_showstring?BYTE+05H,A
0028 F500        R     MOV     ?_LCD12864_showstring?BYTE+06H,A
002A 7D02              MOV     R5,#02H
002C FC                MOV     R4,A
002D 120000      R     LCALL   _LCD12864_showstring
0030         ?C0158:
                                           ; SOURCE LINE # 191
0030 3090FD            JNB     ENTER,?C0158
0033         ?C0159:
                                           ; SOURCE LINE # 192
0033 7F14              MOV     R7,#014H
0035 7E00              MOV     R6,#00H
0037 8040              SJMP    ?C0432
0039         ?C0160:
                                           ; SOURCE LINE # 193
0039 309042            JNB     ENTER,?C0161
C51 COMPILER V9.00   MAIN                                                                  04/20/2021 21:02:48 PAGE 35  

                                           ; SOURCE LINE # 194
                                           ; SOURCE LINE # 195
003C 7BFF              MOV     R3,#0FFH
003E 7A00        R     MOV     R2,#HIGH ?SC_115
0040 7900        R     MOV     R1,#LOW ?SC_115
0042 750000      R     MOV     ?_LCD12864_showstring?BYTE+05H,#00H
0045 750003      R     MOV     ?_LCD12864_showstring?BYTE+06H,#03H
0048 7D03              MOV     R5,#03H
004A 7C00              MOV     R4,#00H
004C 120000      R     LCALL   _LCD12864_showstring
                                           ; SOURCE LINE # 196
004F 7D02              MOV     R5,#02H
0051 7F03              MOV     R7,#03H
0053 120000      R     LCALL   _LCD12864_pos
                                           ; SOURCE LINE # 197
0056 7F1F              MOV     R7,#01FH
0058 120000      R     LCALL   _LCD12864_write_data
                                           ; SOURCE LINE # 198
005B 7FE8              MOV     R7,#0E8H
005D 7E03              MOV     R6,#03H
005F 120000      R     LCALL   _delay1ms
                                           ; SOURCE LINE # 199
0062 7BFF              MOV     R3,#0FFH
0064 7A00        R     MOV     R2,#HIGH ?SC_121
0066 7900        R     MOV     R1,#LOW ?SC_121
0068 750000      R     MOV     ?_LCD12864_showstring?BYTE+05H,#00H
006B 750002      R     MOV     ?_LCD12864_showstring?BYTE+06H,#02H
006E 7D03              MOV     R5,#03H
0070 7C00              MOV     R4,#00H
0072 120000      R     LCALL   _LCD12864_showstring
                                           ; SOURCE LINE # 200
0075 7FE8              MOV     R7,#0E8H
0077 7E03              MOV     R6,#03H
0079         ?C0432:
0079 120000      R     LCALL   _delay1ms
                                           ; SOURCE LINE # 201
007C 80BB              SJMP    ?C0160
007E         ?C0161:
                                           ; SOURCE LINE # 202
007E D290              SETB    ENTER
                                           ; SOURCE LINE # 203
0080 22                RET     
             ; FUNCTION mainmenu (END)

             ; FUNCTION chooseplayer (BEGIN)
                                           ; SOURCE LINE # 204
                                           ; SOURCE LINE # 205
0000         ?C0163:
                                           ; SOURCE LINE # 206
0000 3090FD            JNB     ENTER,?C0163
0003         ?C0164:
                                           ; SOURCE LINE # 207
0003 120000      R     LCALL   LCD12864_init
                                           ; SOURCE LINE # 208
0006 7BFF              MOV     R3,#0FFH
0008 7A00        R     MOV     R2,#HIGH ?SC_129
000A 7900        R     MOV     R1,#LOW ?SC_129
000C 750000      R     MOV     ?_LCD12864_showstring?BYTE+05H,#00H
000F 750001      R     MOV     ?_LCD12864_showstring?BYTE+06H,#01H
0012 7D01              MOV     R5,#01H
0014 7C00              MOV     R4,#00H
0016 120000      R     LCALL   _LCD12864_showstring
C51 COMPILER V9.00   MAIN                                                                  04/20/2021 21:02:48 PAGE 36  

                                           ; SOURCE LINE # 209
0019 E4                CLR     A
001A FD                MOV     R5,A
001B 7F02              MOV     R7,#02H
001D 120000      R     LCALL   _LCD12864_pos
                                           ; SOURCE LINE # 210
0020 7F10              MOV     R7,#010H
0022 120000      R     LCALL   _LCD12864_write_data
0025         ?C0165:
                                           ; SOURCE LINE # 211
0025 3090FD            JNB     ENTER,?C0165
0028         ?C0166:
0028         ?C0167:
                                           ; SOURCE LINE # 212
0028 309053            JNB     ENTER,?C0168
                                           ; SOURCE LINE # 213
                                           ; SOURCE LINE # 214
002B E500        R     MOV     A,playernum
002D 75F003            MOV     B,#03H
0030 A4                MUL     AB
0031 2400        R     ADD     A,#LOW playerlist
0033 F582              MOV     DPL,A
0035 E4                CLR     A
0036 3400        R     ADDC    A,#HIGH playerlist
0038 F583              MOV     DPH,A
003A E4                CLR     A
003B 93                MOVC    A,@A+DPTR
003C FB                MOV     R3,A
003D 7401              MOV     A,#01H
003F 93                MOVC    A,@A+DPTR
0040 FA                MOV     R2,A
0041 7402              MOV     A,#02H
0043 93                MOVC    A,@A+DPTR
0044 F9                MOV     R1,A
0045 750000      R     MOV     ?_LCD12864_showstring?BYTE+05H,#00H
0048 750002      R     MOV     ?_LCD12864_showstring?BYTE+06H,#02H
004B 7D02              MOV     R5,#02H
004D 7C00              MOV     R4,#00H
004F 120000      R     LCALL   _LCD12864_showstring
0052         ?C0169:
                                           ; SOURCE LINE # 215
0052 2093D3            JB      DOWN,?C0167
                                           ; SOURCE LINE # 216
                                           ; SOURCE LINE # 217
0055 E500        R     MOV     A,playernum
0057 2401              ADD     A,#01H
0059 FF                MOV     R7,A
005A E4                CLR     A
005B 33                RLC     A
005C FE                MOV     R6,A
005D AD00        R     MOV     R5,playertotal
005F 7C00              MOV     R4,#00H
0061 120000      E     LCALL   ?C?UIDIV
0064 8D00        R     MOV     playernum,R5
                                           ; SOURCE LINE # 218
0066 7BFF              MOV     R3,#0FFH
0068 7A00        R     MOV     R2,#HIGH ?SC_141
006A 7900        R     MOV     R1,#LOW ?SC_141
006C 750000      R     MOV     ?_LCD12864_showstring?BYTE+05H,#00H
006F 750002      R     MOV     ?_LCD12864_showstring?BYTE+06H,#02H
0072 7D02              MOV     R5,#02H
0074 7C00              MOV     R4,#00H
C51 COMPILER V9.00   MAIN                                                                  04/20/2021 21:02:48 PAGE 37  

0076 120000      R     LCALL   _LCD12864_showstring
                                           ; SOURCE LINE # 219
0079 120000      R     LCALL   L?0449
                                           ; SOURCE LINE # 220
007C 80D4              SJMP    ?C0169
                                           ; SOURCE LINE # 221
007E         ?C0168:
                                           ; SOURCE LINE # 222
007E D290              SETB    ENTER
                                           ; SOURCE LINE # 223
0080 7F14              MOV     R7,#014H
0082 7E00              MOV     R6,#00H
0084 020000      R     LJMP    _delay1ms
             ; FUNCTION chooseplayer (END)

             ; FUNCTION choosedifficulty (BEGIN)
                                           ; SOURCE LINE # 225
                                           ; SOURCE LINE # 226
0000         ?C0172:
                                           ; SOURCE LINE # 227
0000 3090FD            JNB     ENTER,?C0172
0003         ?C0173:
                                           ; SOURCE LINE # 228
0003 120000      R     LCALL   LCD12864_init
                                           ; SOURCE LINE # 229
0006 7BFF              MOV     R3,#0FFH
0008 7A00        R     MOV     R2,#HIGH ?SC_150
000A 7900        R     MOV     R1,#LOW ?SC_150
000C E4                CLR     A
000D F500        R     MOV     ?_LCD12864_showstring?BYTE+05H,A
000F F500        R     MOV     ?_LCD12864_showstring?BYTE+06H,A
0011 FD                MOV     R5,A
0012 FC                MOV     R4,A
0013 120000      R     LCALL   _LCD12864_showstring
                                           ; SOURCE LINE # 230
0016 7BFF              MOV     R3,#0FFH
0018 7A00        R     MOV     R2,#HIGH ?SC_167
001A 7900        R     MOV     R1,#LOW ?SC_167
001C 750000      R     MOV     ?_LCD12864_showstring?BYTE+05H,#00H
001F 750002      R     MOV     ?_LCD12864_showstring?BYTE+06H,#02H
0022 7D02              MOV     R5,#02H
0024 7C00              MOV     R4,#00H
0026 120000      R     LCALL   _LCD12864_showstring
                                           ; SOURCE LINE # 231
0029 7BFF              MOV     R3,#0FFH
002B 7A00        R     MOV     R2,#HIGH ?SC_172
002D 7900        R     MOV     R1,#LOW ?SC_172
002F 750000      R     MOV     ?_LCD12864_showstring?BYTE+05H,#00H
0032 750002      R     MOV     ?_LCD12864_showstring?BYTE+06H,#02H
0035 7D03              MOV     R5,#03H
0037 7C00              MOV     R4,#00H
0039 120000      R     LCALL   _LCD12864_showstring
                                           ; SOURCE LINE # 232
003C 7BFF              MOV     R3,#0FFH
003E 7A00        R     MOV     R2,#HIGH ?SC_177
0040 7900        R     MOV     R1,#LOW ?SC_177
0042 750000      R     MOV     ?_LCD12864_showstring?BYTE+05H,#00H
0045 750006      R     MOV     ?_LCD12864_showstring?BYTE+06H,#06H
0048 7D02              MOV     R5,#02H
004A 7C00              MOV     R4,#00H
004C 120000      R     LCALL   _LCD12864_showstring
                                           ; SOURCE LINE # 233
C51 COMPILER V9.00   MAIN                                                                  04/20/2021 21:02:48 PAGE 38  

004F 7BFF              MOV     R3,#0FFH
0051 7A00        R     MOV     R2,#HIGH ?SC_182
0053 7900        R     MOV     R1,#LOW ?SC_182
0055 750000      R     MOV     ?_LCD12864_showstring?BYTE+05H,#00H
0058 750006      R     MOV     ?_LCD12864_showstring?BYTE+06H,#06H
005B 7D03              MOV     R5,#03H
005D 7C00              MOV     R4,#00H
005F 120000      R     LCALL   _LCD12864_showstring
0062         ?C0174:
                                           ; SOURCE LINE # 234
0062 3090FD            JNB     ENTER,?C0174
0065         ?C0175:
                                           ; SOURCE LINE # 235
0065 120000      R     LCALL   L?0437
                                           ; SOURCE LINE # 236
0068 7F10              MOV     R7,#010H
006A 120000      R     LCALL   _LCD12864_write_data
006D         ?C0176:
                                           ; SOURCE LINE # 237
006D 30901F            JNB     ENTER,?C0177
                                           ; SOURCE LINE # 238
0070         ?C0178:
                                           ; SOURCE LINE # 239
0070 2093FA            JB      DOWN,?C0176
                                           ; SOURCE LINE # 240
                                           ; SOURCE LINE # 241
0073 120000      R     LCALL   L?0437
                                           ; SOURCE LINE # 242
0076 7F20              MOV     R7,#020H
0078 120000      R     LCALL   _LCD12864_write_data
                                           ; SOURCE LINE # 243
007B E500        R     MOV     A,gamemode
007D 04                INC     A
007E 5403              ANL     A,#03H
0080 F500        R     MOV     gamemode,A
                                           ; SOURCE LINE # 244
0082 120000      R     LCALL   L?0438
                                           ; SOURCE LINE # 245
0085 7F10              MOV     R7,#010H
0087 120000      R     LCALL   _LCD12864_write_data
                                           ; SOURCE LINE # 246
008A 120000      R     LCALL   L?0449
                                           ; SOURCE LINE # 247
008D 80E1              SJMP    ?C0178
                                           ; SOURCE LINE # 248
008F         ?C0177:
                                           ; SOURCE LINE # 249
008F D290              SETB    ENTER
                                           ; SOURCE LINE # 250
0091 7F14              MOV     R7,#014H
0093 7E00              MOV     R6,#00H
0095 020000      R     LJMP    _delay1ms
             ; FUNCTION choosedifficulty (END)

             ; FUNCTION gamesetup (BEGIN)
                                           ; SOURCE LINE # 252
                                           ; SOURCE LINE # 253
0000         ?C0181:
                                           ; SOURCE LINE # 255
0000 3090FD            JNB     ENTER,?C0181
0003         ?C0182:
                                           ; SOURCE LINE # 256
C51 COMPILER V9.00   MAIN                                                                  04/20/2021 21:02:48 PAGE 39  

0003 7F14              MOV     R7,#014H
0005 7E00              MOV     R6,#00H
0007 120000      R     LCALL   _delay1ms
                                           ; SOURCE LINE # 257
000A 120000      R     LCALL   LCD12864_init
                                           ; SOURCE LINE # 258
000D 120000      R     LCALL   LCD12864_clear_GDRAM
                                           ; SOURCE LINE # 259
0010 E4                CLR     A
0011 F500        R     MOV     ?_LCD12864_drawrectangle?BYTE+03H,A
0013 750001      R     MOV     ?_LCD12864_drawrectangle?BYTE+04H,#01H
0016 7B3B              MOV     R3,#03BH
0018 FD                MOV     R5,A
0019 FF                MOV     R7,A
001A 120000      R     LCALL   _LCD12864_drawrectangle
                                           ; SOURCE LINE # 260
001D 75003F      R     MOV     ?_LCD12864_drawrectangle?BYTE+03H,#03FH
0020 750001      R     MOV     ?_LCD12864_drawrectangle?BYTE+04H,#01H
0023 7B3B              MOV     R3,#03BH
0025 7D01              MOV     R5,#01H
0027 7F3B              MOV     R7,#03BH
0029 120000      R     LCALL   _LCD12864_drawrectangle
                                           ; SOURCE LINE # 261
002C 7BFF              MOV     R3,#0FFH
002E 7A00        R     MOV     R2,#HIGH ?SC_187
0030 7900        R     MOV     R1,#LOW ?SC_187
0032 750000      R     MOV     ?_LCD12864_showstring?BYTE+05H,#00H
0035 750004      R     MOV     ?_LCD12864_showstring?BYTE+06H,#04H
0038 E4                CLR     A
0039 FD                MOV     R5,A
003A FC                MOV     R4,A
003B 120000      R     LCALL   _LCD12864_showstring
                                           ; SOURCE LINE # 262
003E 7BFF              MOV     R3,#0FFH
0040 7A00        R     MOV     R2,#HIGH ?SC_196
0042 7900        R     MOV     R1,#LOW ?SC_196
0044 750000      R     MOV     ?_LCD12864_showstring?BYTE+05H,#00H
0047 750004      R     MOV     ?_LCD12864_showstring?BYTE+06H,#04H
004A 7D02              MOV     R5,#02H
004C 7C00              MOV     R4,#00H
004E 120000      R     LCALL   _LCD12864_showstring
                                           ; SOURCE LINE # 263
0051 7D01              MOV     R5,#01H
0053 AF00        R     MOV     R7,HISCORE+01H
0055 AE00        R     MOV     R6,HISCORE
0057 120000      R     LCALL   _shownum
                                           ; SOURCE LINE # 264
005A 7D03              MOV     R5,#03H
005C AF00        R     MOV     R7,LINES+01H
005E AE00        R     MOV     R6,LINES
0060 120000      R     LCALL   _shownum
                                           ; SOURCE LINE # 265
0063 120000      E     LCALL   rand
0066 120000      R     LCALL   L?0454
0069 8F00        R     MOV     NEXT,R7
                                           ; SOURCE LINE # 266
006B 120000      R     LCALL   resetshape
                                           ; SOURCE LINE # 268
006E E4                CLR     A
006F F500        R     MOV     i,A
0071         ?C0183:
                                           ; SOURCE LINE # 269
C51 COMPILER V9.00   MAIN                                                                  04/20/2021 21:02:48 PAGE 40  

0071 E4                CLR     A
0072 F500        R     MOV     j,A
0074         ?C0186:
                                           ; SOURCE LINE # 270
0074 E500        R     MOV     A,j
0076 25E0              ADD     A,ACC
0078 25E0              ADD     A,ACC
007A FF                MOV     R7,A
007B E500        R     MOV     A,i
007D 120000      R     LCALL   L?0442
0080 0500        R     INC     j
0082 E500        R     MOV     A,j
0084 C3                CLR     C
0085 940F              SUBB    A,#0FH
0087 40EB              JC      ?C0186
0089         ?C0185:
0089 0500        R     INC     i
008B E500        R     MOV     A,i
008D C3                CLR     C
008E 9410              SUBB    A,#010H
0090 40DF              JC      ?C0183
0092         ?C0189:
                                           ; SOURCE LINE # 272
0092 2090FD            JB      ENTER,?C0189
0095         ?C0190:
                                           ; SOURCE LINE # 274
0095 E4                CLR     A
0096 F500        R     MOV     i,A
0098         ?C0191:
                                           ; SOURCE LINE # 275
0098 E4                CLR     A
0099 F500        R     MOV     j,A
009B         ?C0194:
                                           ; SOURCE LINE # 276
009B E500        R     MOV     A,j
009D 25E0              ADD     A,ACC
009F 25E0              ADD     A,ACC
00A1 FF                MOV     R7,A
00A2 E500        R     MOV     A,i
00A4 25E0              ADD     A,ACC
00A6 25E0              ADD     A,ACC
00A8 FE                MOV     R6,A
00A9 04                INC     A
00AA FD                MOV     R5,A
00AB EF                MOV     A,R7
00AC 2402              ADD     A,#02H
00AE FB                MOV     R3,A
00AF EE                MOV     A,R6
00B0 2403              ADD     A,#03H
00B2 F500        R     MOV     ?_LCD12864_drawrectangle?BYTE+03H,A
00B4 E4                CLR     A
00B5 F500        R     MOV     ?_LCD12864_drawrectangle?BYTE+04H,A
00B7 120000      R     LCALL   _LCD12864_drawrectangle
00BA 0500        R     INC     j
00BC E500        R     MOV     A,j
00BE C3                CLR     C
00BF 940F              SUBB    A,#0FH
00C1 40D8              JC      ?C0194
00C3         ?C0193:
00C3 0500        R     INC     i
00C5 E500        R     MOV     A,i
00C7 C3                CLR     C
C51 COMPILER V9.00   MAIN                                                                  04/20/2021 21:02:48 PAGE 41  

00C8 9410              SUBB    A,#010H
00CA 40CC              JC      ?C0191
00CC         ?C0192:
                                           ; SOURCE LINE # 278
00CC D282              SETB    BGM_INT0
                                           ; SOURCE LINE # 279
00CE C282              CLR     BGM_INT0
                                           ; SOURCE LINE # 281
00D0 22                RET     
             ; FUNCTION gamesetup (END)

             ; FUNCTION resetshape (BEGIN)
                                           ; SOURCE LINE # 282
                                           ; SOURCE LINE # 283
                                           ; SOURCE LINE # 285
0000 850000      R     MOV     presentshape,NEXT
                                           ; SOURCE LINE # 286
0003 E500        R     MOV     A,presentshape
0005 75F023            MOV     B,#023H
0008 A4                MUL     AB
0009 2400        R     ADD     A,#LOW ddd
000B F9                MOV     R1,A
000C 7400        R     MOV     A,#HIGH ddd
000E 35F0              ADDC    A,B
0010 FA                MOV     R2,A
0011 7BFF              MOV     R3,#0FFH
0013 7800        R     MOV     R0,#LOW present
0015 7C00        R     MOV     R4,#HIGH present
0017 7D00              MOV     R5,#00H
0019 7E00              MOV     R6,#00H
001B 7F23              MOV     R7,#023H
001D 120000      E     LCALL   ?C?COPY
                                           ; SOURCE LINE # 287
0020 750005      R     MOV     presentshape+01H,#05H
                                           ; SOURCE LINE # 288
0023 E500        R     MOV     A,present+022H
0025 25E0              ADD     A,ACC
0027 2400        R     ADD     A,#LOW present
0029 F8                MOV     R0,A
002A E6                MOV     A,@R0
002B FF                MOV     R7,A
002C E500        R     MOV     A,present
002E 25E0              ADD     A,ACC
0030 2400        R     ADD     A,#LOW present+02H
0032 F8                MOV     R0,A
0033 E6                MOV     A,@R0
0034 C3                CLR     C
0035 9F                SUBB    A,R7
0036 14                DEC     A
0037 F500        R     MOV     presentshape+02H,A
                                           ; SOURCE LINE # 289
0039 120000      E     LCALL   rand
003C E500        R     MOV     A,present+021H
003E 24FF              ADD     A,#0FFH
0040 FB                MOV     R3,A
0041 E4                CLR     A
0042 34FF              ADDC    A,#0FFH
0044 FA                MOV     R2,A
0045 E4                CLR     A
0046 FD                MOV     R5,A
0047 FC                MOV     R4,A
0048 120000      R     LCALL   _random
C51 COMPILER V9.00   MAIN                                                                  04/20/2021 21:02:48 PAGE 42  

004B 8F00        R     MOV     presentshape+03H,R7
                                           ; SOURCE LINE # 290
004D 120000      E     LCALL   rand
0050 120000      R     LCALL   L?0454
0053 8F00        R     MOV     NEXT,R7
                                           ; SOURCE LINE # 291
0055 22                RET     
             ; FUNCTION resetshape (END)

             ; FUNCTION game (BEGIN)
                                           ; SOURCE LINE # 292
                                           ; SOURCE LINE # 293
                                           ; SOURCE LINE # 294
0000 120000      R     LCALL   gamesetup
0003         ?C0199:
                                           ; SOURCE LINE # 295
0003 E500        R     MOV     A,gamefoward
0005 6008              JZ      ?C0200
                                           ; SOURCE LINE # 296
                                           ; SOURCE LINE # 297
0007 120000      R     LCALL   updateWithInput
                                           ; SOURCE LINE # 298
000A 120000      R     LCALL   updateWithoutInput
                                           ; SOURCE LINE # 299
000D 80F4              SJMP    ?C0199
000F         ?C0200:
                                           ; SOURCE LINE # 300
000F 020000      R     LJMP    gameover
             ; FUNCTION game (END)

             ; FUNCTION updateWithoutInput (BEGIN)
                                           ; SOURCE LINE # 302
                                           ; SOURCE LINE # 303
                                           ; SOURCE LINE # 304
0000 120000      R     LCALL   isdown
0003 EF                MOV     A,R7
0004 7013              JNZ     ?C0205
                                           ; SOURCE LINE # 305
                                           ; SOURCE LINE # 306
0006 120000      R     LCALL   moveline
                                           ; SOURCE LINE # 307
0009 120000      R     LCALL   isover
000C EF                MOV     A,R7
000D 6004              JZ      ?C0203
                                           ; SOURCE LINE # 308
000F E4                CLR     A
0010 F500        R     MOV     gamefoward,A
0012 22                RET     
0013         ?C0203:
                                           ; SOURCE LINE # 310
                                           ; SOURCE LINE # 311
0013 120000      R     LCALL   resetshape
                                           ; SOURCE LINE # 312
0016 120000      R     LCALL   showpage
                                           ; SOURCE LINE # 313
                                           ; SOURCE LINE # 314
                                           ; SOURCE LINE # 315
0019         ?C0205:
0019 22                RET     
             ; FUNCTION updateWithoutInput (END)

             ; FUNCTION updateWithInput (BEGIN)
C51 COMPILER V9.00   MAIN                                                                  04/20/2021 21:02:48 PAGE 43  

                                           ; SOURCE LINE # 316
                                           ; SOURCE LINE # 317
                                           ; SOURCE LINE # 319
0000 AF00        R     MOV     R7,gamemode
0002 7E00              MOV     R6,#00H
0004 E500        R     MOV     A,LEVEL+01H
0006 2500        R     ADD     A,gamemode
0008 CF                XCH     A,R7
0009 EE                MOV     A,R6
000A 3500        R     ADDC    A,LEVEL
000C CF                XCH     A,R7
000D 24FF              ADD     A,#0FFH
000F CF                XCH     A,R7
0010 34FF              ADDC    A,#0FFH
0012 FE                MOV     R6,A
0013 D3                SETB    C
0014 EF                MOV     A,R7
0015 9406              SUBB    A,#06H
0017 EE                MOV     A,R6
0018 9400              SUBB    A,#00H
001A 5002              JNC     ?C0206
001C 8004              SJMP    ?C0207
001E         ?C0206:
001E 7E00              MOV     R6,#00H
0020 7F06              MOV     R7,#06H
0022         ?C0207:
0022 8F00        R     MOV     time,R7
                                           ; SOURCE LINE # 321
0024 E4                CLR     A
0025 F500        R     MOV     i,A
0027 F500        R     MOV     i+01H,A
0029         ?C0208:
0029 E500        R     MOV     A,time
002B 25E0              ADD     A,ACC
002D 2400        R     ADD     A,#LOW timecnt
002F F582              MOV     DPL,A
0031 E4                CLR     A
0032 3400        R     ADDC    A,#HIGH timecnt
0034 F583              MOV     DPH,A
0036 D3                SETB    C
0037 7401              MOV     A,#01H
0039 93                MOVC    A,@A+DPTR
003A 9500        R     SUBB    A,i+01H
003C E4                CLR     A
003D 93                MOVC    A,@A+DPTR
003E 9500        R     SUBB    A,i
0040 403E              JC      ?C0219
                                           ; SOURCE LINE # 322
0042 E4                CLR     A
0043 F500        R     MOV     j,A
0045 F500        R     MOV     j+01H,A
0047         ?C0211:
                                           ; SOURCE LINE # 323
                                           ; SOURCE LINE # 324
0047 209003            JB      ENTER,?C0214
                                           ; SOURCE LINE # 325
                                           ; SOURCE LINE # 326
004A 120000      R     LCALL   Entercommand
                                           ; SOURCE LINE # 327
004D         ?C0214:
                                           ; SOURCE LINE # 328
004D 209103            JB      LEFT,?C0215
C51 COMPILER V9.00   MAIN                                                                  04/20/2021 21:02:48 PAGE 44  

                                           ; SOURCE LINE # 329
                                           ; SOURCE LINE # 330
0050 120000      R     LCALL   Leftcommand
                                           ; SOURCE LINE # 331
0053         ?C0215:
                                           ; SOURCE LINE # 332
0053 209203            JB      RIGHT,?C0216
                                           ; SOURCE LINE # 333
                                           ; SOURCE LINE # 334
0056 120000      R     LCALL   Rightcommand
                                           ; SOURCE LINE # 335
0059         ?C0216:
                                           ; SOURCE LINE # 336
0059 209403            JB      SHIFT,?C0217
                                           ; SOURCE LINE # 337
                                           ; SOURCE LINE # 338
005C 120000      R     LCALL   Shiftcommand
                                           ; SOURCE LINE # 339
005F         ?C0217:
                                           ; SOURCE LINE # 340
005F 209303            JB      DOWN,?C0213
                                           ; SOURCE LINE # 341
                                           ; SOURCE LINE # 342
0062 120000      R     LCALL   Downcommand
                                           ; SOURCE LINE # 343
                                           ; SOURCE LINE # 344
0065         ?C0213:
0065 0500        R     INC     j+01H
0067 E500        R     MOV     A,j+01H
0069 7002              JNZ     ?C0404
006B 0500        R     INC     j
006D         ?C0404:
006D C3                CLR     C
006E 946E              SUBB    A,#06EH
0070 E500        R     MOV     A,j
0072 9400              SUBB    A,#00H
0074 40D1              JC      ?C0211
0076         ?C0210:
0076 0500        R     INC     i+01H
0078 E500        R     MOV     A,i+01H
007A 70AD              JNZ     ?C0208
007C 0500        R     INC     i
007E         ?C0405:
007E 80A9              SJMP    ?C0208
                                           ; SOURCE LINE # 345
0080         ?C0219:
0080 22                RET     
             ; FUNCTION updateWithInput (END)

             ; FUNCTION Entercommand (BEGIN)
                                           ; SOURCE LINE # 346
                                           ; SOURCE LINE # 347
                                           ; SOURCE LINE # 350
0000 850000      R     MOV     temp,present
                                           ; SOURCE LINE # 351
0003 E500        R     MOV     A,presentshape+03H
0005 2401              ADD     A,#01H
0007 FF                MOV     R7,A
0008 E4                CLR     A
0009 33                RLC     A
000A FE                MOV     R6,A
000B AD00        R     MOV     R5,present+021H
C51 COMPILER V9.00   MAIN                                                                  04/20/2021 21:02:48 PAGE 45  

000D 7C00              MOV     R4,#00H
000F 120000      E     LCALL   ?C?UIDIV
0012 8D00        R     MOV     tmp,R5
                                           ; SOURCE LINE # 352
;---- Variable 'i' assigned to Register 'R7' ----
0014 E4                CLR     A
0015 FF                MOV     R7,A
0016         ?C0220:
0016 EF                MOV     A,R7
0017 C3                CLR     C
0018 9500        R     SUBB    A,present+022H
001A 4003              JC      $ + 5H
001C 020000      R     LJMP    ?C0221
                                           ; SOURCE LINE # 353
                                           ; SOURCE LINE # 354
001F E500        R     MOV     A,present+022H
0021 8500F0      R     MOV     B,tmp
0024 A4                MUL     AB
0025 FE                MOV     R6,A
0026 2500        R     ADD     A,temp
0028 FD                MOV     R5,A
0029 25E0              ADD     A,ACC
002B 2400        R     ADD     A,#LOW present+01H
002D F8                MOV     R0,A
002E E6                MOV     A,@R0
002F FC                MOV     R4,A
0030 EE                MOV     A,R6
0031 2F                ADD     A,R7
0032 FE                MOV     R6,A
0033 25E0              ADD     A,ACC
0035 2400        R     ADD     A,#LOW present+01H
0037 F8                MOV     R0,A
0038 E6                MOV     A,@R0
0039 C3                CLR     C
003A 9C                SUBB    A,R4
003B 2500        R     ADD     A,presentshape+01H
003D FC                MOV     R4,A
;---- Variable 'x' assigned to Register 'R4' ----
                                           ; SOURCE LINE # 355
003E ED                MOV     A,R5
003F 25E0              ADD     A,ACC
0041 2400        R     ADD     A,#LOW present+02H
0043 F8                MOV     R0,A
0044 E6                MOV     A,@R0
0045 FD                MOV     R5,A
0046 EE                MOV     A,R6
0047 25E0              ADD     A,ACC
0049 2400        R     ADD     A,#LOW present+02H
004B F8                MOV     R0,A
004C E6                MOV     A,@R0
004D C3                CLR     C
004E 9D                SUBB    A,R5
004F 2500        R     ADD     A,presentshape+02H
;---- Variable 'y' assigned to Register 'R1' ----
0051 F9                MOV     R1,A
                                           ; SOURCE LINE # 356
0052 EC                MOV     A,R4
0053 FB                MOV     R3,A
0054 33                RLC     A
0055 95E0              SUBB    A,ACC
0057 FA                MOV     R2,A
0058 E9                MOV     A,R1
C51 COMPILER V9.00   MAIN                                                                  04/20/2021 21:02:48 PAGE 46  

0059 F582              MOV     DPL,A
005B 33                RLC     A
005C 95E0              SUBB    A,ACC
005E F583              MOV     DPH,A
0060 75F00F            MOV     B,#0FH
0063 A4                MUL     AB
0064 2400        R     ADD     A,#HIGH rectangle
0066 F583              MOV     DPH,A
0068 75F00F            MOV     B,#0FH
006B E582              MOV     A,DPL
006D A4                MUL     AB
006E 2400        R     ADD     A,#LOW rectangle
0070 F582              MOV     DPL,A
0072 E5F0              MOV     A,B
0074 3583              ADDC    A,DPH
0076 F583              MOV     DPH,A
0078 E582              MOV     A,DPL
007A 2B                ADD     A,R3
007B F582              MOV     DPL,A
007D E583              MOV     A,DPH
007F 3A                ADDC    A,R2
0080 F583              MOV     DPH,A
0082 E0                MOVX    A,@DPTR
0083 702E              JNZ     ?C0225
0085 C3                CLR     C
0086 EC                MOV     A,R4
0087 6480              XRL     A,#080H
0089 9480              SUBB    A,#080H
008B 4026              JC      ?C0225
008D D3                SETB    C
008E EC                MOV     A,R4
008F 6480              XRL     A,#080H
0091 948E              SUBB    A,#08EH
0093 501E              JNC     ?C0225
0095 E9                MOV     A,R1
0096 6480              XRL     A,#080H
0098 948F              SUBB    A,#08FH
009A 5017              JNC     ?C0225
                                           ; SOURCE LINE # 357
009C         ?C0222:
009C 0F                INC     R7
009D 020000      R     LJMP    ?C0220
00A0         ?C0221:
                                           ; SOURCE LINE # 358
00A0 120000      R     LCALL   L?0451
                                           ; SOURCE LINE # 359
00A3 850000      R     MOV     presentshape+03H,tmp
                                           ; SOURCE LINE # 360
00A6 7D01              MOV     R5,#01H
00A8 7F01              MOV     R7,#01H
00AA 120000      R     LCALL   _showshape
00AD         ?C0226:
                                           ; SOURCE LINE # 361
00AD 3090FD            JNB     ENTER,?C0226
00B0         ?C0227:
                                           ; SOURCE LINE # 362
00B0 120000      R     LCALL   L?0455
                                           ; SOURCE LINE # 363
00B3         ?C0225:
00B3 22                RET     
             ; FUNCTION Entercommand (END)

C51 COMPILER V9.00   MAIN                                                                  04/20/2021 21:02:48 PAGE 47  

             ; FUNCTION Leftcommand (BEGIN)
                                           ; SOURCE LINE # 364
                                           ; SOURCE LINE # 365
                                           ; SOURCE LINE # 367
;---- Variable 'temp' assigned to Register 'R1' ----
0000 A900        R     MOV     R1,present
                                           ; SOURCE LINE # 368
0002 E500        R     MOV     A,presentshape+03H
0004 8500F0      R     MOV     B,present+022H
0007 A4                MUL     AB
0008 FF                MOV     R7,A
;---- Variable 'tmp' assigned to Register 'R7' ----
                                           ; SOURCE LINE # 370
;---- Variable 'i' assigned to Register 'R6' ----
0009 E4                CLR     A
000A FE                MOV     R6,A
000B         ?C0228:
000B EE                MOV     A,R6
000C FB                MOV     R3,A
000D 33                RLC     A
000E 95E0              SUBB    A,ACC
0010 FA                MOV     R2,A
0011 C3                CLR     C
0012 EB                MOV     A,R3
0013 9500        R     SUBB    A,present+022H
0015 7480              MOV     A,#080H
0017 F8                MOV     R0,A
0018 6A                XRL     A,R2
0019 98                SUBB    A,R0
001A 505C              JNC     ?C0229
                                           ; SOURCE LINE # 371
                                           ; SOURCE LINE # 372
001C E9                MOV     A,R1
001D 2F                ADD     A,R7
001E FD                MOV     R5,A
001F 25E0              ADD     A,ACC
0021 2400        R     ADD     A,#LOW present+01H
0023 F8                MOV     R0,A
0024 E6                MOV     A,@R0
0025 FC                MOV     R4,A
0026 EE                MOV     A,R6
0027 2F                ADD     A,R7
0028 25E0              ADD     A,ACC
002A 2400        R     ADD     A,#LOW present+01H
002C F8                MOV     R0,A
002D E6                MOV     A,@R0
002E C3                CLR     C
002F 9C                SUBB    A,R4
0030 2500        R     ADD     A,presentshape+01H
0032 FC                MOV     R4,A
;---- Variable 'x' assigned to Register 'R4' ----
                                           ; SOURCE LINE # 373
0033 ED                MOV     A,R5
0034 25E0              ADD     A,ACC
0036 2400        R     ADD     A,#LOW present+02H
0038 F8                MOV     R0,A
0039 E6                MOV     A,@R0
003A FD                MOV     R5,A
003B EE                MOV     A,R6
003C 2F                ADD     A,R7
003D 25E0              ADD     A,ACC
003F 2400        R     ADD     A,#LOW present+02H
C51 COMPILER V9.00   MAIN                                                                  04/20/2021 21:02:48 PAGE 48  

0041 F8                MOV     R0,A
0042 E6                MOV     A,@R0
0043 C3                CLR     C
0044 9D                SUBB    A,R5
0045 2500        R     ADD     A,presentshape+02H
0047 FD                MOV     R5,A
;---- Variable 'y' assigned to Register 'R5' ----
                                           ; SOURCE LINE # 374
0048 EC                MOV     A,R4
0049 603F              JZ      ?C0233
004B FB                MOV     R3,A
004C 33                RLC     A
004D 95E0              SUBB    A,ACC
004F FA                MOV     R2,A
0050 ED                MOV     A,R5
0051 33                RLC     A
0052 95E0              SUBB    A,ACC
0054 FC                MOV     R4,A
0055 900000      R     MOV     DPTR,#rectangle-01H
0058 75F00F            MOV     B,#0FH
005B ED                MOV     A,R5
005C 120000      E     LCALL   ?C?OFFXADD
005F EC                MOV     A,R4
0060 75F00F            MOV     B,#0FH
0063 A4                MUL     AB
0064 2583              ADD     A,DPH
0066 F583              MOV     DPH,A
0068 E582              MOV     A,DPL
006A 2B                ADD     A,R3
006B F582              MOV     DPL,A
006D E583              MOV     A,DPH
006F 3A                ADDC    A,R2
0070 F583              MOV     DPH,A
0072 E0                MOVX    A,@DPTR
0073 7015              JNZ     ?C0233
                                           ; SOURCE LINE # 375
0075         ?C0230:
0075 0E                INC     R6
0076 8093              SJMP    ?C0228
0078         ?C0229:
                                           ; SOURCE LINE # 376
0078 120000      R     LCALL   L?0451
                                           ; SOURCE LINE # 377
007B 1500        R     DEC     presentshape+01H
                                           ; SOURCE LINE # 378
007D 7D01              MOV     R5,#01H
007F 7F01              MOV     R7,#01H
0081 120000      R     LCALL   _showshape
0084         ?C0234:
                                           ; SOURCE LINE # 379
0084 3091FD            JNB     LEFT,?C0234
0087         ?C0235:
                                           ; SOURCE LINE # 380
0087 120000      R     LCALL   L?0455
                                           ; SOURCE LINE # 381
008A         ?C0233:
008A 22                RET     
             ; FUNCTION Leftcommand (END)

             ; FUNCTION Rightcommand (BEGIN)
                                           ; SOURCE LINE # 382
                                           ; SOURCE LINE # 383
C51 COMPILER V9.00   MAIN                                                                  04/20/2021 21:02:48 PAGE 49  

                                           ; SOURCE LINE # 385
;---- Variable 'temp' assigned to Register 'R1' ----
0000 A900        R     MOV     R1,present
                                           ; SOURCE LINE # 386
0002 E500        R     MOV     A,presentshape+03H
0004 8500F0      R     MOV     B,present+022H
0007 A4                MUL     AB
0008 FF                MOV     R7,A
;---- Variable 'tmp' assigned to Register 'R7' ----
                                           ; SOURCE LINE # 388
;---- Variable 'i' assigned to Register 'R6' ----
0009 E4                CLR     A
000A FE                MOV     R6,A
000B         ?C0236:
000B EE                MOV     A,R6
000C FB                MOV     R3,A
000D 33                RLC     A
000E 95E0              SUBB    A,ACC
0010 FA                MOV     R2,A
0011 C3                CLR     C
0012 EB                MOV     A,R3
0013 9500        R     SUBB    A,present+022H
0015 7480              MOV     A,#080H
0017 F8                MOV     R0,A
0018 6A                XRL     A,R2
0019 98                SUBB    A,R0
001A 505F              JNC     ?C0237
                                           ; SOURCE LINE # 389
                                           ; SOURCE LINE # 390
001C E9                MOV     A,R1
001D 2F                ADD     A,R7
001E FD                MOV     R5,A
001F 25E0              ADD     A,ACC
0021 2400        R     ADD     A,#LOW present+01H
0023 F8                MOV     R0,A
0024 E6                MOV     A,@R0
0025 FC                MOV     R4,A
0026 EE                MOV     A,R6
0027 2F                ADD     A,R7
0028 25E0              ADD     A,ACC
002A 2400        R     ADD     A,#LOW present+01H
002C F8                MOV     R0,A
002D E6                MOV     A,@R0
002E C3                CLR     C
002F 9C                SUBB    A,R4
0030 2500        R     ADD     A,presentshape+01H
0032 FC                MOV     R4,A
;---- Variable 'x' assigned to Register 'R4' ----
                                           ; SOURCE LINE # 391
0033 ED                MOV     A,R5
0034 25E0              ADD     A,ACC
0036 2400        R     ADD     A,#LOW present+02H
0038 F8                MOV     R0,A
0039 E6                MOV     A,@R0
003A FD                MOV     R5,A
003B EE                MOV     A,R6
003C 2F                ADD     A,R7
003D 25E0              ADD     A,ACC
003F 2400        R     ADD     A,#LOW present+02H
0041 F8                MOV     R0,A
0042 E6                MOV     A,@R0
0043 C3                CLR     C
C51 COMPILER V9.00   MAIN                                                                  04/20/2021 21:02:48 PAGE 50  

0044 9D                SUBB    A,R5
0045 2500        R     ADD     A,presentshape+02H
0047 FD                MOV     R5,A
;---- Variable 'y' assigned to Register 'R5' ----
                                           ; SOURCE LINE # 392
0048 EC                MOV     A,R4
0049 640E              XRL     A,#0EH
004B 6040              JZ      ?C0241
004D EC                MOV     A,R4
004E FB                MOV     R3,A
004F 33                RLC     A
0050 95E0              SUBB    A,ACC
0052 FA                MOV     R2,A
0053 ED                MOV     A,R5
0054 33                RLC     A
0055 95E0              SUBB    A,ACC
0057 FC                MOV     R4,A
0058 900000      R     MOV     DPTR,#rectangle+01H
005B 75F00F            MOV     B,#0FH
005E ED                MOV     A,R5
005F 120000      E     LCALL   ?C?OFFXADD
0062 EC                MOV     A,R4
0063 75F00F            MOV     B,#0FH
0066 A4                MUL     AB
0067 2583              ADD     A,DPH
0069 F583              MOV     DPH,A
006B E582              MOV     A,DPL
006D 2B                ADD     A,R3
006E F582              MOV     DPL,A
0070 E583              MOV     A,DPH
0072 3A                ADDC    A,R2
0073 F583              MOV     DPH,A
0075 E0                MOVX    A,@DPTR
0076 7015              JNZ     ?C0241
                                           ; SOURCE LINE # 393
0078         ?C0238:
0078 0E                INC     R6
0079 8090              SJMP    ?C0236
007B         ?C0237:
                                           ; SOURCE LINE # 394
007B 120000      R     LCALL   L?0452
                                           ; SOURCE LINE # 395
007E 0500        R     INC     presentshape+01H
                                           ; SOURCE LINE # 396
0080 7D01              MOV     R5,#01H
0082 7F01              MOV     R7,#01H
0084 120000      R     LCALL   _showshape
0087         ?C0242:
                                           ; SOURCE LINE # 397
0087 3092FD            JNB     RIGHT,?C0242
008A         ?C0243:
                                           ; SOURCE LINE # 398
008A 120000      R     LCALL   L?0456
                                           ; SOURCE LINE # 399
008D         ?C0241:
008D 22                RET     
             ; FUNCTION Rightcommand (END)

             ; FUNCTION Shiftcommand (BEGIN)
                                           ; SOURCE LINE # 400
                                           ; SOURCE LINE # 401
                                           ; SOURCE LINE # 402
C51 COMPILER V9.00   MAIN                                                                  04/20/2021 21:02:48 PAGE 51  

0000 850000      R     MOV     temp,present
                                           ; SOURCE LINE # 403
0003 C3                CLR     C
0004 7401              MOV     A,#01H
0006 9500        R     SUBB    A,page
0008 F500        R     MOV     page,A
                                           ; SOURCE LINE # 404
000A 120000      R     LCALL   showpage
000D         ?C0244:
                                           ; SOURCE LINE # 405
000D 3094FD            JNB     SHIFT,?C0244
0010         ?C0245:
                                           ; SOURCE LINE # 406
0010 7F2C              MOV     R7,#02CH
0012 7E01              MOV     R6,#01H
0014 020000      R     LJMP    _delay_1ms
             ; FUNCTION Shiftcommand (END)

             ; FUNCTION Downcommand (BEGIN)
                                           ; SOURCE LINE # 408
                                           ; SOURCE LINE # 409
0000         ?C0247:
                                           ; SOURCE LINE # 410
0000 120000      R     LCALL   isdown
0003 EF                MOV     A,R7
0004 70FA              JNZ     ?C0247
0006         ?C0248:
                                           ; SOURCE LINE # 411
0006         ?C0249:
0006 22                RET     
             ; FUNCTION Downcommand (END)

             ; FUNCTION showpage (BEGIN)
                                           ; SOURCE LINE # 412
                                           ; SOURCE LINE # 413
                                           ; SOURCE LINE # 414
0000 E500        R     MOV     A,page
0002 6047              JZ      ?C0250
                                           ; SOURCE LINE # 415
                                           ; SOURCE LINE # 416
0004 120000      R     LCALL   LCD12864_clear_DDRAM
                                           ; SOURCE LINE # 417
0007 75003F      R     MOV     ?_LCD12864_drawrectangle?BYTE+03H,#03FH
000A E4                CLR     A
000B F500        R     MOV     ?_LCD12864_drawrectangle?BYTE+04H,A
000D 7B7F              MOV     R3,#07FH
000F 7D30              MOV     R5,#030H
0011 7F40              MOV     R7,#040H
0013 120000      R     LCALL   _LCD12864_drawrectangle
                                           ; SOURCE LINE # 418
0016 7BFF              MOV     R3,#0FFH
0018 7A00        R     MOV     R2,#HIGH ?SC_202
001A 7900        R     MOV     R1,#LOW ?SC_202
001C 750000      R     MOV     ?_LCD12864_showstring?BYTE+05H,#00H
001F 750004      R     MOV     ?_LCD12864_showstring?BYTE+06H,#04H
0022 E4                CLR     A
0023 FD                MOV     R5,A
0024 FC                MOV     R4,A
0025 120000      R     LCALL   _LCD12864_showstring
                                           ; SOURCE LINE # 419
0028 7BFF              MOV     R3,#0FFH
002A 7A00        R     MOV     R2,#HIGH ?SC_208
C51 COMPILER V9.00   MAIN                                                                  04/20/2021 21:02:48 PAGE 52  

002C 7900        R     MOV     R1,#LOW ?SC_208
002E 750000      R     MOV     ?_LCD12864_showstring?BYTE+05H,#00H
0031 750004      R     MOV     ?_LCD12864_showstring?BYTE+06H,#04H
0034 7D02              MOV     R5,#02H
0036 7C00              MOV     R4,#00H
0038 120000      R     LCALL   _LCD12864_showstring
                                           ; SOURCE LINE # 420
003B 7D01              MOV     R5,#01H
003D AF00        R     MOV     R7,LEVEL+01H
003F AE00        R     MOV     R6,LEVEL
0041 120000      R     LCALL   _shownum
                                           ; SOURCE LINE # 421
0044 7D01              MOV     R5,#01H
0046 E4                CLR     A
0047 FF                MOV     R7,A
0048 020000      R     LJMP    _showshape
                                           ; SOURCE LINE # 422
004B         ?C0250:
                                           ; SOURCE LINE # 424
                                           ; SOURCE LINE # 425
004B 120000      R     LCALL   LCD12864_clear_DDRAM
                                           ; SOURCE LINE # 426
004E 75003F      R     MOV     ?_LCD12864_drawrectangle?BYTE+03H,#03FH
0051 E4                CLR     A
0052 F500        R     MOV     ?_LCD12864_drawrectangle?BYTE+04H,A
0054 7B7F              MOV     R3,#07FH
0056 7D30              MOV     R5,#030H
0058 7F40              MOV     R7,#040H
005A 120000      R     LCALL   _LCD12864_drawrectangle
                                           ; SOURCE LINE # 427
005D 7BFF              MOV     R3,#0FFH
005F 7A00        R     MOV     R2,#HIGH ?SC_187
0061 7900        R     MOV     R1,#LOW ?SC_187
0063 750000      R     MOV     ?_LCD12864_showstring?BYTE+05H,#00H
0066 750004      R     MOV     ?_LCD12864_showstring?BYTE+06H,#04H
0069 E4                CLR     A
006A FD                MOV     R5,A
006B FC                MOV     R4,A
006C 120000      R     LCALL   _LCD12864_showstring
                                           ; SOURCE LINE # 428
006F 7BFF              MOV     R3,#0FFH
0071 7A00        R     MOV     R2,#HIGH ?SC_196
0073 7900        R     MOV     R1,#LOW ?SC_196
0075 750000      R     MOV     ?_LCD12864_showstring?BYTE+05H,#00H
0078 750004      R     MOV     ?_LCD12864_showstring?BYTE+06H,#04H
007B 7D02              MOV     R5,#02H
007D 7C00              MOV     R4,#00H
007F 120000      R     LCALL   _LCD12864_showstring
                                           ; SOURCE LINE # 429
0082 7400        R     MOV     A,#LOW score
0084 2500        R     ADD     A,playernum
0086 F582              MOV     DPL,A
0088 E4                CLR     A
0089 3400        R     ADDC    A,#HIGH score
008B F583              MOV     DPH,A
008D E0                MOVX    A,@DPTR
008E 75F00A            MOV     B,#0AH
0091 A4                MUL     AB
0092 FF                MOV     R7,A
0093 AEF0              MOV     R6,B
0095 C3                CLR     C
0096 E500        R     MOV     A,HISCORE+01H
C51 COMPILER V9.00   MAIN                                                                  04/20/2021 21:02:48 PAGE 53  

0098 9F                SUBB    A,R7
0099 E500        R     MOV     A,HISCORE
009B 9E                SUBB    A,R6
009C 5002              JNC     ?C0252
009E 8004              SJMP    ?C0253
00A0         ?C0252:
00A0 AE00        R     MOV     R6,HISCORE
00A2 AF00        R     MOV     R7,HISCORE+01H
00A4         ?C0253:
00A4 7D01              MOV     R5,#01H
00A6 120000      R     LCALL   _shownum
                                           ; SOURCE LINE # 430
00A9 7D03              MOV     R5,#03H
00AB AF00        R     MOV     R7,LINES+01H
00AD AE00        R     MOV     R6,LINES
00AF 120000      R     LCALL   _shownum
                                           ; SOURCE LINE # 431
                                           ; SOURCE LINE # 432
00B2         ?C0254:
00B2 22                RET     
             ; FUNCTION showpage (END)

             ; FUNCTION L?0451 (BEGIN)
0000         L?0452:
0000 E4                CLR     A
0001 FD                MOV     R5,A
0002 7F01              MOV     R7,#01H
             ; FUNCTION _showshape (BEGIN)
                                           ; SOURCE LINE # 433
0004 8D00        R     MOV     flag,R5
;---- Variable 'mode' assigned to Register 'R7' ----
                                           ; SOURCE LINE # 434
                                           ; SOURCE LINE # 436
0006 850000      R     MOV     temp,present
                                           ; SOURCE LINE # 437
0009 E500        R     MOV     A,presentshape+03H
000B 8500F0      R     MOV     B,present+022H
000E A4                MUL     AB
000F F500        R     MOV     tmp,A
                                           ; SOURCE LINE # 439
0011 EF                MOV     A,R7
0012 606E              JZ      ?C0255
                                           ; SOURCE LINE # 440
0014 E4                CLR     A
0015 F500        R     MOV     i,A
0017         ?C0256:
0017 E500        R     MOV     A,i
0019 C3                CLR     C
001A 9500        R     SUBB    A,present+022H
001C 4003              JC      $ + 5H
001E 020000      R     LJMP    ?C0264
                                           ; SOURCE LINE # 441
                                           ; SOURCE LINE # 442
0021 E500        R     MOV     A,temp
0023 2500        R     ADD     A,tmp
0025 FF                MOV     R7,A
0026 25E0              ADD     A,ACC
0028 2400        R     ADD     A,#LOW present+01H
002A F8                MOV     R0,A
002B E6                MOV     A,@R0
002C FE                MOV     R6,A
002D E500        R     MOV     A,i
C51 COMPILER V9.00   MAIN                                                                  04/20/2021 21:02:48 PAGE 54  

002F 2500        R     ADD     A,tmp
0031 FD                MOV     R5,A
0032 25E0              ADD     A,ACC
0034 2400        R     ADD     A,#LOW present+01H
0036 F8                MOV     R0,A
0037 E6                MOV     A,@R0
0038 C3                CLR     C
0039 9E                SUBB    A,R6
003A 2500        R     ADD     A,presentshape+01H
003C F500        R     MOV     x,A
                                           ; SOURCE LINE # 443
003E EF                MOV     A,R7
003F 25E0              ADD     A,ACC
0041 2400        R     ADD     A,#LOW present+02H
0043 F8                MOV     R0,A
0044 E6                MOV     A,@R0
0045 FF                MOV     R7,A
0046 ED                MOV     A,R5
0047 25E0              ADD     A,ACC
0049 2400        R     ADD     A,#LOW present+02H
004B F8                MOV     R0,A
004C E6                MOV     A,@R0
004D C3                CLR     C
004E 9F                SUBB    A,R7
004F 2500        R     ADD     A,presentshape+02H
0051 F500        R     MOV     y,A
                                           ; SOURCE LINE # 444
0053 C3                CLR     C
0054 6480              XRL     A,#080H
0056 9480              SUBB    A,#080H
0058 4024              JC      ?C0258
                                           ; SOURCE LINE # 445
005A E500        R     MOV     A,x
005C 25E0              ADD     A,ACC
005E 25E0              ADD     A,ACC
0060 FF                MOV     R7,A
0061 E500        R     MOV     A,y
0063 25E0              ADD     A,ACC
0065 25E0              ADD     A,ACC
0067 FE                MOV     R6,A
0068 04                INC     A
0069 FD                MOV     R5,A
006A E500        R     MOV     A,x
006C 25E0              ADD     A,ACC
006E 25E0              ADD     A,ACC
0070 2402              ADD     A,#02H
0072 FB                MOV     R3,A
0073 EE                MOV     A,R6
0074 2403              ADD     A,#03H
0076 F500        R     MOV     ?_LCD12864_drawrectangle?BYTE+03H,A
0078 850000      R     MOV     ?_LCD12864_drawrectangle?BYTE+04H,flag
007B 120000      R     LCALL   _LCD12864_drawrectangle
                                           ; SOURCE LINE # 446
007E         ?C0258:
007E 0500        R     INC     i
0080 8095              SJMP    ?C0256
0082         ?C0255:
                                           ; SOURCE LINE # 448
0082 E4                CLR     A
0083 F500        R     MOV     i,A
0085         ?C0261:
0085 E500        R     MOV     A,i
C51 COMPILER V9.00   MAIN                                                                  04/20/2021 21:02:48 PAGE 55  

0087 C3                CLR     C
0088 9500        R     SUBB    A,present+022H
008A 505D              JNC     ?C0264
                                           ; SOURCE LINE # 449
                                           ; SOURCE LINE # 450
008C E500        R     MOV     A,NEXT
008E 75F023            MOV     B,#023H
0091 A4                MUL     AB
0092 2400        R     ADD     A,#LOW ddd+01H
0094 F582              MOV     DPL,A
0096 E4                CLR     A
0097 3400        R     ADDC    A,#HIGH ddd+01H
0099 F583              MOV     DPH,A
009B 75F002            MOV     B,#02H
009E E500        R     MOV     A,i
00A0 120000      E     LCALL   ?C?OFFXADD
00A3 E4                CLR     A
00A4 93                MOVC    A,@A+DPTR
00A5 F500        R     MOV     x,A
                                           ; SOURCE LINE # 451
00A7 E500        R     MOV     A,NEXT
00A9 75F023            MOV     B,#023H
00AC A4                MUL     AB
00AD 2400        R     ADD     A,#LOW ddd+02H
00AF F582              MOV     DPL,A
00B1 E4                CLR     A
00B2 3400        R     ADDC    A,#HIGH ddd+02H
00B4 F583              MOV     DPH,A
00B6 75F002            MOV     B,#02H
00B9 E500        R     MOV     A,i
00BB 120000      E     LCALL   ?C?OFFXADD
00BE E4                CLR     A
00BF 93                MOVC    A,@A+DPTR
00C0 F500        R     MOV     y,A
                                           ; SOURCE LINE # 452
00C2 E500        R     MOV     A,x
00C4 75F008            MOV     B,#08H
00C7 A4                MUL     AB
00C8 FE                MOV     R6,A
00C9 2450              ADD     A,#050H
00CB FF                MOV     R7,A
00CC E500        R     MOV     A,y
00CE 75F008            MOV     B,#08H
00D1 A4                MUL     AB
00D2 FC                MOV     R4,A
00D3 2431              ADD     A,#031H
00D5 FD                MOV     R5,A
00D6 EE                MOV     A,R6
00D7 2456              ADD     A,#056H
00D9 FB                MOV     R3,A
00DA EC                MOV     A,R4
00DB 2437              ADD     A,#037H
00DD F500        R     MOV     ?_LCD12864_drawrectangle?BYTE+03H,A
00DF 850000      R     MOV     ?_LCD12864_drawrectangle?BYTE+04H,flag
00E2 120000      R     LCALL   _LCD12864_drawrectangle
                                           ; SOURCE LINE # 453
00E5 0500        R     INC     i
00E7 809C              SJMP    ?C0261
                                           ; SOURCE LINE # 454
00E9         ?C0264:
00E9 22                RET     
             ; FUNCTION _showshape (END)
C51 COMPILER V9.00   MAIN                                                                  04/20/2021 21:02:48 PAGE 56  


             ; FUNCTION moveline (BEGIN)
                                           ; SOURCE LINE # 455
                                           ; SOURCE LINE # 456
                                           ; SOURCE LINE # 458
0000 E4                CLR     A
0001 F500        R     MOV     count,A
                                           ; SOURCE LINE # 459
0003 75000F      R     MOV     i,#0FH
0006         ?C0265:
                                           ; SOURCE LINE # 460
                                           ; SOURCE LINE # 461
0006 E4                CLR     A
0007 F500        R     MOV     j,A
0009         ?C0268:
                                           ; SOURCE LINE # 462
0009 AF00        R     MOV     R7,j
000B EF                MOV     A,R7
000C 33                RLC     A
000D 95E0              SUBB    A,ACC
000F FE                MOV     R6,A
0010 AD00        R     MOV     R5,i
0012 ED                MOV     A,R5
0013 33                RLC     A
0014 95E0              SUBB    A,ACC
0016 FC                MOV     R4,A
0017 900000      R     MOV     DPTR,#rectangle
001A 75F00F            MOV     B,#0FH
001D ED                MOV     A,R5
001E 120000      E     LCALL   ?C?OFFXADD
0021 EC                MOV     A,R4
0022 75F00F            MOV     B,#0FH
0025 A4                MUL     AB
0026 2583              ADD     A,DPH
0028 F583              MOV     DPH,A
002A E582              MOV     A,DPL
002C 2F                ADD     A,R7
002D F582              MOV     DPL,A
002F E583              MOV     A,DPH
0031 3E                ADDC    A,R6
0032 F583              MOV     DPH,A
0034 E0                MOVX    A,@DPTR
0035 6007              JZ      ?C0269
0037         ?C0271:
0037         ?C0270:
0037 0500        R     INC     j
0039 E500        R     MOV     A,j
003B B40FCB            CJNE    A,#0FH,?C0268
003E         ?C0269:
                                           ; SOURCE LINE # 463
003E E500        R     MOV     A,j
0040 640F              XRL     A,#0FH
0042 6003              JZ      $ + 5H
0044 020000      R     LJMP    ?C0267
                                           ; SOURCE LINE # 464
                                           ; SOURCE LINE # 465
0047 0500        R     INC     LINES+01H
0049 E500        R     MOV     A,LINES+01H
004B 7002              JNZ     ?C0406
004D 0500        R     INC     LINES
004F         ?C0406:
                                           ; SOURCE LINE # 466
C51 COMPILER V9.00   MAIN                                                                  04/20/2021 21:02:48 PAGE 57  

004F 0500        R     INC     count
                                           ; SOURCE LINE # 467
0051 E500        R     MOV     A,i
0053 25E0              ADD     A,ACC
0055 25E0              ADD     A,ACC
0057 FF                MOV     R7,A
0058 04                INC     A
0059 FD                MOV     R5,A
005A EF                MOV     A,R7
005B 2403              ADD     A,#03H
005D F500        R     MOV     ?_LCD12864_drawrectangle?BYTE+03H,A
005F E4                CLR     A
0060 F500        R     MOV     ?_LCD12864_drawrectangle?BYTE+04H,A
0062 7B3A              MOV     R3,#03AH
0064 FF                MOV     R7,A
0065 120000      R     LCALL   _LCD12864_drawrectangle
                                           ; SOURCE LINE # 468
0068 850000      R     MOV     k,i
006B         ?C0273:
006B E500        R     MOV     A,k
006D 7003              JNZ     $ + 5H
006F 020000      R     LJMP    ?C0274
                                           ; SOURCE LINE # 469
0072 E4                CLR     A
0073 F500        R     MOV     j,A
0075         ?C0276:
                                           ; SOURCE LINE # 470
                                           ; SOURCE LINE # 471
0075 AF00        R     MOV     R7,j
0077 EF                MOV     A,R7
0078 33                RLC     A
0079 95E0              SUBB    A,ACC
007B FE                MOV     R6,A
007C AD00        R     MOV     R5,k
007E ED                MOV     A,R5
007F 33                RLC     A
0080 95E0              SUBB    A,ACC
0082 FC                MOV     R4,A
0083 900000      R     MOV     DPTR,#rectangle-0FH
0086 75F00F            MOV     B,#0FH
0089 ED                MOV     A,R5
008A 120000      E     LCALL   ?C?OFFXADD
008D EC                MOV     A,R4
008E 75F00F            MOV     B,#0FH
0091 A4                MUL     AB
0092 2583              ADD     A,DPH
0094 F583              MOV     DPH,A
0096 E582              MOV     A,DPL
0098 2F                ADD     A,R7
0099 F582              MOV     DPL,A
009B E583              MOV     A,DPH
009D 3E                ADDC    A,R6
009E F583              MOV     DPH,A
00A0 E0                MOVX    A,@DPTR
00A1 FF                MOV     R7,A
00A2 E500        R     MOV     A,j
00A4 FB                MOV     R3,A
00A5 33                RLC     A
00A6 95E0              SUBB    A,ACC
00A8 FA                MOV     R2,A
00A9 900000      R     MOV     DPTR,#rectangle
00AC 75F00F            MOV     B,#0FH
C51 COMPILER V9.00   MAIN                                                                  04/20/2021 21:02:48 PAGE 58  

00AF ED                MOV     A,R5
00B0 120000      E     LCALL   ?C?OFFXADD
00B3 EC                MOV     A,R4
00B4 75F00F            MOV     B,#0FH
00B7 A4                MUL     AB
00B8 2583              ADD     A,DPH
00BA F583              MOV     DPH,A
00BC E582              MOV     A,DPL
00BE 2B                ADD     A,R3
00BF F582              MOV     DPL,A
00C1 E583              MOV     A,DPH
00C3 3A                ADDC    A,R2
00C4 F583              MOV     DPH,A
00C6 EF                MOV     A,R7
00C7 F0                MOVX    @DPTR,A
                                           ; SOURCE LINE # 472
00C8 AF00        R     MOV     R7,j
00CA EF                MOV     A,R7
00CB 33                RLC     A
00CC 95E0              SUBB    A,ACC
00CE FE                MOV     R6,A
00CF ED                MOV     A,R5
00D0 33                RLC     A
00D1 95E0              SUBB    A,ACC
00D3 FC                MOV     R4,A
00D4 900000      R     MOV     DPTR,#rectangle
00D7 75F00F            MOV     B,#0FH
00DA ED                MOV     A,R5
00DB 120000      E     LCALL   ?C?OFFXADD
00DE EC                MOV     A,R4
00DF 75F00F            MOV     B,#0FH
00E2 A4                MUL     AB
00E3 2583              ADD     A,DPH
00E5 F583              MOV     DPH,A
00E7 E582              MOV     A,DPL
00E9 2F                ADD     A,R7
00EA F582              MOV     DPL,A
00EC E583              MOV     A,DPH
00EE 3E                ADDC    A,R6
00EF F583              MOV     DPH,A
00F1 E0                MOVX    A,@DPTR
00F2 F500        R     MOV     ?_LCD12864_drawrectangle?BYTE+04H,A
00F4 E500        R     MOV     A,j
00F6 25E0              ADD     A,ACC
00F8 25E0              ADD     A,ACC
00FA FF                MOV     R7,A
00FB E500        R     MOV     A,k
00FD 25E0              ADD     A,ACC
00FF 25E0              ADD     A,ACC
0101 FE                MOV     R6,A
0102 04                INC     A
0103 FD                MOV     R5,A
0104 E500        R     MOV     A,j
0106 25E0              ADD     A,ACC
0108 25E0              ADD     A,ACC
010A 2402              ADD     A,#02H
010C FB                MOV     R3,A
010D EE                MOV     A,R6
010E 2403              ADD     A,#03H
0110 F500        R     MOV     ?_LCD12864_drawrectangle?BYTE+03H,A
0112 120000      R     LCALL   _LCD12864_drawrectangle
                                           ; SOURCE LINE # 473
C51 COMPILER V9.00   MAIN                                                                  04/20/2021 21:02:48 PAGE 59  

0115 0500        R     INC     j
0117 C3                CLR     C
0118 E500        R     MOV     A,j
011A 6480              XRL     A,#080H
011C 948F              SUBB    A,#08FH
011E 5003              JNC     $ + 5H
0120 020000      R     LJMP    ?C0276
0123         ?C0275:
0123 1500        R     DEC     k
0125 020000      R     LJMP    ?C0273
0128         ?C0274:
                                           ; SOURCE LINE # 474
0128 0500        R     INC     i
                                           ; SOURCE LINE # 475
                                           ; SOURCE LINE # 476
012A         ?C0267:
012A 1500        R     DEC     i
012C D3                SETB    C
012D E500        R     MOV     A,i
012F 6480              XRL     A,#080H
0131 9480              SUBB    A,#080H
0133 4003              JC      $ + 5H
0135 020000      R     LJMP    ?C0265
0138         ?C0266:
                                           ; SOURCE LINE # 477
0138 AE00        R     MOV     R6,LINES
013A AF00        R     MOV     R7,LINES+01H
013C 7C00              MOV     R4,#00H
013E 7D14              MOV     R5,#014H
0140 120000      E     LCALL   ?C?UIDIV
0143 EF                MOV     A,R7
0144 2401              ADD     A,#01H
0146 F500        R     MOV     LEVEL+01H,A
0148 E4                CLR     A
0149 3E                ADDC    A,R6
014A F500        R     MOV     LEVEL,A
                                           ; SOURCE LINE # 478
014C E500        R     MOV     A,count
014E F5F0              MOV     B,A
0150 A4                MUL     AB
0151 FF                MOV     R7,A
0152 AEF0              MOV     R6,B
0154 7C00              MOV     R4,#00H
0156 7D0A              MOV     R5,#0AH
0158 120000      E     LCALL   ?C?IMUL
015B EF                MOV     A,R7
015C 2500        R     ADD     A,HISCORE+01H
015E F500        R     MOV     HISCORE+01H,A
0160 EE                MOV     A,R6
0161 3500        R     ADDC    A,HISCORE
0163 F500        R     MOV     HISCORE,A
                                           ; SOURCE LINE # 479
0165 22                RET     
             ; FUNCTION moveline (END)

             ; FUNCTION isdown (BEGIN)
                                           ; SOURCE LINE # 480
                                           ; SOURCE LINE # 481
                                           ; SOURCE LINE # 483
0000 850000      R     MOV     temp,present
                                           ; SOURCE LINE # 484
0003 E500        R     MOV     A,presentshape+03H
C51 COMPILER V9.00   MAIN                                                                  04/20/2021 21:02:48 PAGE 60  

0005 8500F0      R     MOV     B,present+022H
0008 A4                MUL     AB
;---- Variable 'tmp' assigned to Register 'R1' ----
0009 F9                MOV     R1,A
                                           ; SOURCE LINE # 486
;---- Variable 'i' assigned to Register 'R7' ----
000A E4                CLR     A
000B FF                MOV     R7,A
000C         ?C0280:
000C E500        R     MOV     A,present+022H
000E FD                MOV     R5,A
000F EF                MOV     A,R7
0010 FB                MOV     R3,A
0011 33                RLC     A
0012 95E0              SUBB    A,ACC
0014 FA                MOV     R2,A
0015 C3                CLR     C
0016 EB                MOV     A,R3
0017 9D                SUBB    A,R5
0018 7480              MOV     A,#080H
001A F8                MOV     R0,A
001B 6A                XRL     A,R2
001C 98                SUBB    A,R0
001D 4003              JC      $ + 5H
001F 020000      R     LJMP    ?C0281
                                           ; SOURCE LINE # 487
                                           ; SOURCE LINE # 488
0022 E500        R     MOV     A,temp
0024 29                ADD     A,R1
0025 FE                MOV     R6,A
0026 25E0              ADD     A,ACC
0028 2400        R     ADD     A,#LOW present+01H
002A F8                MOV     R0,A
002B E6                MOV     A,@R0
002C FD                MOV     R5,A
002D EF                MOV     A,R7
002E 29                ADD     A,R1
002F FC                MOV     R4,A
0030 25E0              ADD     A,ACC
0032 2400        R     ADD     A,#LOW present+01H
0034 F8                MOV     R0,A
0035 E6                MOV     A,@R0
0036 C3                CLR     C
0037 9D                SUBB    A,R5
0038 2500        R     ADD     A,presentshape+01H
003A F500        R     MOV     x,A
                                           ; SOURCE LINE # 489
003C EE                MOV     A,R6
003D 25E0              ADD     A,ACC
003F 2400        R     ADD     A,#LOW present+02H
0041 F8                MOV     R0,A
0042 E6                MOV     A,@R0
0043 FE                MOV     R6,A
0044 EC                MOV     A,R4
0045 25E0              ADD     A,ACC
0047 2400        R     ADD     A,#LOW present+02H
0049 F8                MOV     R0,A
004A E6                MOV     A,@R0
004B C3                CLR     C
004C 9E                SUBB    A,R6
004D 2500        R     ADD     A,presentshape+02H
004F F500        R     MOV     y,A
C51 COMPILER V9.00   MAIN                                                                  04/20/2021 21:02:48 PAGE 61  

                                           ; SOURCE LINE # 490
0051 FD                MOV     R5,A
0052 33                RLC     A
0053 95E0              SUBB    A,ACC
0055 FC                MOV     R4,A
0056 ED                MOV     A,R5
0057 2401              ADD     A,#01H
0059 E4                CLR     A
005A 3C                ADDC    A,R4
005B C3                CLR     C
005C 6480              XRL     A,#080H
005E 9480              SUBB    A,#080H
0060 5003              JNC     $ + 5H
0062 020000      R     LJMP    ?C0282
0065 E500        R     MOV     A,y
0067 640F              XRL     A,#0FH
0069 602E              JZ      ?C0284
006B E500        R     MOV     A,x
006D FD                MOV     R5,A
006E 33                RLC     A
006F 95E0              SUBB    A,ACC
0071 FC                MOV     R4,A
0072 E500        R     MOV     A,y
0074 FB                MOV     R3,A
0075 33                RLC     A
0076 95E0              SUBB    A,ACC
0078 FA                MOV     R2,A
0079 900000      R     MOV     DPTR,#rectangle+0FH
007C 75F00F            MOV     B,#0FH
007F EB                MOV     A,R3
0080 120000      E     LCALL   ?C?OFFXADD
0083 EA                MOV     A,R2
0084 75F00F            MOV     B,#0FH
0087 A4                MUL     AB
0088 2583              ADD     A,DPH
008A F583              MOV     DPH,A
008C E582              MOV     A,DPL
008E 2D                ADD     A,R5
008F F582              MOV     DPL,A
0091 E583              MOV     A,DPH
0093 3C                ADDC    A,R4
0094 F583              MOV     DPH,A
0096 E0                MOVX    A,@DPTR
0097 6076              JZ      ?C0282
0099         ?C0284:
                                           ; SOURCE LINE # 491
                                           ; SOURCE LINE # 492
0099 E500        R     MOV     A,present+022H
009B 14                DEC     A
009C FE                MOV     R6,A
;---- Variable 'j' assigned to Register 'R6' ----
009D         ?C0285:
009D C3                CLR     C
009E EE                MOV     A,R6
009F 6480              XRL     A,#080H
00A1 9480              SUBB    A,#080H
00A3 4067              JC      ?C0286
                                           ; SOURCE LINE # 493
                                           ; SOURCE LINE # 494
00A5 E500        R     MOV     A,temp
00A7 29                ADD     A,R1
00A8 FD                MOV     R5,A
C51 COMPILER V9.00   MAIN                                                                  04/20/2021 21:02:48 PAGE 62  

00A9 25E0              ADD     A,ACC
00AB 2400        R     ADD     A,#LOW present+01H
00AD F8                MOV     R0,A
00AE E6                MOV     A,@R0
00AF FC                MOV     R4,A
00B0 EE                MOV     A,R6
00B1 29                ADD     A,R1
00B2 FB                MOV     R3,A
00B3 25E0              ADD     A,ACC
00B5 2400        R     ADD     A,#LOW present+01H
00B7 F8                MOV     R0,A
00B8 E6                MOV     A,@R0
00B9 C3                CLR     C
00BA 9C                SUBB    A,R4
00BB 2500        R     ADD     A,presentshape+01H
00BD F500        R     MOV     x,A
                                           ; SOURCE LINE # 495
00BF ED                MOV     A,R5
00C0 25E0              ADD     A,ACC
00C2 2400        R     ADD     A,#LOW present+02H
00C4 F8                MOV     R0,A
00C5 E6                MOV     A,@R0
00C6 FD                MOV     R5,A
00C7 EB                MOV     A,R3
00C8 25E0              ADD     A,ACC
00CA 2400        R     ADD     A,#LOW present+02H
00CC F8                MOV     R0,A
00CD E6                MOV     A,@R0
00CE C3                CLR     C
00CF 9D                SUBB    A,R5
00D0 2500        R     ADD     A,presentshape+02H
00D2 F500        R     MOV     y,A
                                           ; SOURCE LINE # 496
00D4 C3                CLR     C
00D5 6480              XRL     A,#080H
00D7 9480              SUBB    A,#080H
00D9 402E              JC      ?C0287
                                           ; SOURCE LINE # 497
00DB AD00        R     MOV     R5,x
00DD ED                MOV     A,R5
00DE 33                RLC     A
00DF 95E0              SUBB    A,ACC
00E1 FC                MOV     R4,A
00E2 AB00        R     MOV     R3,y
00E4 EB                MOV     A,R3
00E5 33                RLC     A
00E6 95E0              SUBB    A,ACC
00E8 FA                MOV     R2,A
00E9 900000      R     MOV     DPTR,#rectangle
00EC 75F00F            MOV     B,#0FH
00EF EB                MOV     A,R3
00F0 120000      E     LCALL   ?C?OFFXADD
00F3 EA                MOV     A,R2
00F4 75F00F            MOV     B,#0FH
00F7 A4                MUL     AB
00F8 2583              ADD     A,DPH
00FA F583              MOV     DPH,A
00FC E582              MOV     A,DPL
00FE 2D                ADD     A,R5
00FF F582              MOV     DPL,A
0101 E583              MOV     A,DPH
0103 3C                ADDC    A,R4
C51 COMPILER V9.00   MAIN                                                                  04/20/2021 21:02:48 PAGE 63  

0104 F583              MOV     DPH,A
0106 7401              MOV     A,#01H
0108 F0                MOVX    @DPTR,A
                                           ; SOURCE LINE # 498
0109         ?C0287:
0109 1E                DEC     R6
010A 8091              SJMP    ?C0285
010C         ?C0286:
                                           ; SOURCE LINE # 499
010C 7F00              MOV     R7,#00H
010E 22                RET     
                                           ; SOURCE LINE # 500
                                           ; SOURCE LINE # 501
010F         ?C0282:
010F 0F                INC     R7
0110 020000      R     LJMP    ?C0280
0113         ?C0281:
                                           ; SOURCE LINE # 502
0113 120000      R     LCALL   L?0452
                                           ; SOURCE LINE # 503
0116 0500        R     INC     presentshape+02H
                                           ; SOURCE LINE # 504
0118 7D01              MOV     R5,#01H
011A 7F01              MOV     R7,#01H
011C 120000      R     LCALL   _showshape
                                           ; SOURCE LINE # 506
011F 7F01              MOV     R7,#01H
                                           ; SOURCE LINE # 507
0121         ?C0289:
0121 22                RET     
             ; FUNCTION isdown (END)

             ; FUNCTION isover (BEGIN)
                                           ; SOURCE LINE # 508
                                           ; SOURCE LINE # 509
                                           ; SOURCE LINE # 511
;---- Variable 'temp' assigned to Register 'R7' ----
0000 AF00        R     MOV     R7,present
                                           ; SOURCE LINE # 512
0002 E500        R     MOV     A,presentshape+03H
0004 8500F0      R     MOV     B,present+022H
0007 A4                MUL     AB
0008 FE                MOV     R6,A
;---- Variable 'tmp' assigned to Register 'R6' ----
                                           ; SOURCE LINE # 514
;---- Variable 'i' assigned to Register 'R5' ----
0009 E4                CLR     A
000A FD                MOV     R5,A
000B         ?C0290:
000B ED                MOV     A,R5
000C C3                CLR     C
000D 9500        R     SUBB    A,present+022H
000F 5022              JNC     ?C0291
                                           ; SOURCE LINE # 515
                                           ; SOURCE LINE # 516
0011 EF                MOV     A,R7
0012 2E                ADD     A,R6
0013 25E0              ADD     A,ACC
0015 2400        R     ADD     A,#LOW present+02H
0017 F8                MOV     R0,A
0018 E6                MOV     A,@R0
0019 FC                MOV     R4,A
C51 COMPILER V9.00   MAIN                                                                  04/20/2021 21:02:48 PAGE 64  

001A ED                MOV     A,R5
001B 2E                ADD     A,R6
001C 25E0              ADD     A,ACC
001E 2400        R     ADD     A,#LOW present+02H
0020 F8                MOV     R0,A
0021 E6                MOV     A,@R0
0022 C3                CLR     C
0023 9C                SUBB    A,R4
0024 2500        R     ADD     A,presentshape+02H
;---- Variable 'y' assigned to Register 'R4' ----
                                           ; SOURCE LINE # 517
0026 C3                CLR     C
0027 6480              XRL     A,#080H
0029 9480              SUBB    A,#080H
002B 5003              JNC     ?C0292
002D 7F01              MOV     R7,#01H
002F 22                RET     
                                           ; SOURCE LINE # 518
0030         ?C0292:
0030 0D                INC     R5
0031 80D8              SJMP    ?C0290
0033         ?C0291:
                                           ; SOURCE LINE # 519
0033 7F00              MOV     R7,#00H
                                           ; SOURCE LINE # 520
0035         ?C0294:
0035 22                RET     
             ; FUNCTION isover (END)

             ; FUNCTION gameover (BEGIN)
                                           ; SOURCE LINE # 521
                                           ; SOURCE LINE # 522
                                           ; SOURCE LINE # 524
0000 D283              SETB    BGM_INT1
                                           ; SOURCE LINE # 525
0002 C283              CLR     BGM_INT1
                                           ; SOURCE LINE # 526
0004 E4                CLR     A
0005 F500        R     MOV     i,A
0007         ?C0295:
                                           ; SOURCE LINE # 527
0007 E4                CLR     A
0008 F500        R     MOV     j,A
000A         ?C0298:
                                           ; SOURCE LINE # 528
000A E500        R     MOV     A,j
000C 25E0              ADD     A,ACC
000E 25E0              ADD     A,ACC
0010 FF                MOV     R7,A
0011 E500        R     MOV     A,i
0013 25E0              ADD     A,ACC
0015 25E0              ADD     A,ACC
0017 FE                MOV     R6,A
0018 04                INC     A
0019 FD                MOV     R5,A
001A EF                MOV     A,R7
001B 2402              ADD     A,#02H
001D FB                MOV     R3,A
001E EE                MOV     A,R6
001F 2403              ADD     A,#03H
0021 F500        R     MOV     ?_LCD12864_drawrectangle?BYTE+03H,A
0023 E4                CLR     A
C51 COMPILER V9.00   MAIN                                                                  04/20/2021 21:02:48 PAGE 65  

0024 F500        R     MOV     ?_LCD12864_drawrectangle?BYTE+04H,A
0026 120000      R     LCALL   _LCD12864_drawrectangle
0029 0500        R     INC     j
002B E500        R     MOV     A,j
002D C3                CLR     C
002E 940F              SUBB    A,#0FH
0030 40D8              JC      ?C0298
0032         ?C0297:
0032 0500        R     INC     i
0034 E500        R     MOV     A,i
0036 C3                CLR     C
0037 9410              SUBB    A,#010H
0039 40CC              JC      ?C0295
003B         ?C0296:
                                           ; SOURCE LINE # 529
003B 7BFF              MOV     R3,#0FFH
003D 7A00        R     MOV     R2,#HIGH ?SC_213
003F 7900        R     MOV     R1,#LOW ?SC_213
0041 120000      R     LCALL   L?0436
                                           ; SOURCE LINE # 530
0044 7BFF              MOV     R3,#0FFH
0046 7A00        R     MOV     R2,#HIGH ?SC_220
0048 7900        R     MOV     R1,#LOW ?SC_220
004A E4                CLR     A
004B F500        R     MOV     ?_LCD12864_showstring?BYTE+05H,A
004D F500        R     MOV     ?_LCD12864_showstring?BYTE+06H,A
004F 7D02              MOV     R5,#02H
0051 FC                MOV     R4,A
0052 120000      R     LCALL   _LCD12864_showstring
                                           ; SOURCE LINE # 531
0055 7FD0              MOV     R7,#0D0H
0057 7E07              MOV     R6,#07H
0059 120000      R     LCALL   _delay_1ms
                                           ; SOURCE LINE # 532
005C 7BFF              MOV     R3,#0FFH
005E 7A00        R     MOV     R2,#HIGH ?SC_227
0060 7900        R     MOV     R1,#LOW ?SC_227
0062 120000      R     LCALL   L?0436
                                           ; SOURCE LINE # 533
0065 7BFF              MOV     R3,#0FFH
0067 7A00        R     MOV     R2,#HIGH ?SC_227
0069 7900        R     MOV     R1,#LOW ?SC_227
006B E4                CLR     A
006C F500        R     MOV     ?_LCD12864_showstring?BYTE+05H,A
006E F500        R     MOV     ?_LCD12864_showstring?BYTE+06H,A
0070 7D02              MOV     R5,#02H
0072 FC                MOV     R4,A
0073 120000      R     LCALL   _LCD12864_showstring
                                           ; SOURCE LINE # 534
0076 E4                CLR     A
0077 F500        R     MOV     i,A
0079         ?C0301:
                                           ; SOURCE LINE # 535
0079 E4                CLR     A
007A F500        R     MOV     j,A
007C         ?C0304:
                                           ; SOURCE LINE # 536
007C E500        R     MOV     A,j
007E 25E0              ADD     A,ACC
0080 25E0              ADD     A,ACC
0082 FF                MOV     R7,A
0083 E500        R     MOV     A,i
C51 COMPILER V9.00   MAIN                                                                  04/20/2021 21:02:48 PAGE 66  

0085 120000      R     LCALL   L?0442
0088 0500        R     INC     j
008A E500        R     MOV     A,j
008C C3                CLR     C
008D 940F              SUBB    A,#0FH
008F 40EB              JC      ?C0304
0091         ?C0303:
0091 0500        R     INC     i
0093 E500        R     MOV     A,i
0095 C3                CLR     C
0096 9410              SUBB    A,#010H
0098 40DF              JC      ?C0301
009A         ?C0302:
                                           ; SOURCE LINE # 537
009A 7FE8              MOV     R7,#0E8H
009C 7E03              MOV     R6,#03H
009E 120000      R     LCALL   _delay_1ms
                                           ; SOURCE LINE # 538
00A1 AE00        R     MOV     R6,HISCORE
00A3 AF00        R     MOV     R7,HISCORE+01H
00A5 7C00              MOV     R4,#00H
00A7 7D0A              MOV     R5,#0AH
00A9 120000      E     LCALL   ?C?UIDIV
00AC 7400        R     MOV     A,#LOW score
00AE 2500        R     ADD     A,playernum
00B0 F582              MOV     DPL,A
00B2 E4                CLR     A
00B3 3400        R     ADDC    A,#HIGH score
00B5 F583              MOV     DPH,A
00B7 E0                MOVX    A,@DPTR
00B8 FD                MOV     R5,A
00B9 7C00              MOV     R4,#00H
00BB C3                CLR     C
00BC EF                MOV     A,R7
00BD 9D                SUBB    A,R5
00BE EE                MOV     A,R6
00BF 9C                SUBB    A,R4
00C0 5004              JNC     ?C0307
00C2 AF05              MOV     R7,AR5
00C4 800B              SJMP    ?C0308
00C6         ?C0307:
00C6 AE00        R     MOV     R6,HISCORE
00C8 AF00        R     MOV     R7,HISCORE+01H
00CA 7C00              MOV     R4,#00H
00CC 7D0A              MOV     R5,#0AH
00CE 120000      E     LCALL   ?C?UIDIV
00D1         ?C0308:
00D1 7400        R     MOV     A,#LOW score
00D3 2500        R     ADD     A,playernum
00D5 F582              MOV     DPL,A
00D7 E4                CLR     A
00D8 3400        R     ADDC    A,#HIGH score
00DA F583              MOV     DPH,A
00DC EF                MOV     A,R7
00DD F0                MOVX    @DPTR,A
                                           ; SOURCE LINE # 539
00DE E4                CLR     A
00DF F500        R     MOV     i,A
00E1         ?C0309:
00E1 E500        R     MOV     A,playertotal
00E3 14                DEC     A
00E4 FF                MOV     R7,A
C51 COMPILER V9.00   MAIN                                                                  04/20/2021 21:02:48 PAGE 67  

00E5 E500        R     MOV     A,i
00E7 C3                CLR     C
00E8 9F                SUBB    A,R7
00E9 505C              JNC     ?C0316
                                           ; SOURCE LINE # 540
                                           ; SOURCE LINE # 541
00EB 850000      R     MOV     j,i
                                           ; SOURCE LINE # 542
00EE E500        R     MOV     A,i
00F0 04                INC     A
00F1 F500        R     MOV     k,A
00F3         ?C0312:
00F3 E500        R     MOV     A,k
00F5 C3                CLR     C
00F6 9500        R     SUBB    A,playertotal
00F8 502C              JNC     ?C0313
                                           ; SOURCE LINE # 543
00FA 7400        R     MOV     A,#LOW playerrank
00FC 2500        R     ADD     A,j
00FE F8                MOV     R0,A
00FF E6                MOV     A,@R0
0100 2400        R     ADD     A,#LOW score
0102 F582              MOV     DPL,A
0104 E4                CLR     A
0105 3400        R     ADDC    A,#HIGH score
0107 F583              MOV     DPH,A
0109 E0                MOVX    A,@DPTR
010A FF                MOV     R7,A
010B 7400        R     MOV     A,#LOW playerrank
010D 2500        R     ADD     A,k
010F F8                MOV     R0,A
0110 E6                MOV     A,@R0
0111 2400        R     ADD     A,#LOW score
0113 F582              MOV     DPL,A
0115 E4                CLR     A
0116 3400        R     ADDC    A,#HIGH score
0118 F583              MOV     DPH,A
011A E0                MOVX    A,@DPTR
011B D3                SETB    C
011C 9F                SUBB    A,R7
011D 4003              JC      ?C0314
011F 850000      R     MOV     j,k
0122         ?C0314:
0122 0500        R     INC     k
0124 80CD              SJMP    ?C0312
0126         ?C0313:
                                           ; SOURCE LINE # 544
0126 7400        R     MOV     A,#LOW playerrank
0128 2500        R     ADD     A,j
012A F8                MOV     R0,A
012B E6                MOV     A,@R0
012C F500        R     MOV     k,A
                                           ; SOURCE LINE # 545
012E 7400        R     MOV     A,#LOW playerrank
0130 2500        R     ADD     A,i
0132 F8                MOV     R0,A
0133 E6                MOV     A,@R0
0134 FF                MOV     R7,A
0135 7400        R     MOV     A,#LOW playerrank
0137 2500        R     ADD     A,j
0139 F8                MOV     R0,A
013A A607              MOV     @R0,AR7
C51 COMPILER V9.00   MAIN                                                                  04/20/2021 21:02:48 PAGE 68  

                                           ; SOURCE LINE # 546
013C 7400        R     MOV     A,#LOW playerrank
013E 2500        R     ADD     A,i
0140 F8                MOV     R0,A
0141 A600        R     MOV     @R0,k
                                           ; SOURCE LINE # 547
0143 0500        R     INC     i
0145 809A              SJMP    ?C0309
                                           ; SOURCE LINE # 548
0147         ?C0316:
0147 22                RET     
             ; FUNCTION gameover (END)

             ; FUNCTION showscore (BEGIN)
                                           ; SOURCE LINE # 549
                                           ; SOURCE LINE # 550
                                           ; SOURCE LINE # 551
0000 E4                CLR     A
0001 F500        R     MOV     start,A
                                           ; SOURCE LINE # 552
0003 120000      R     LCALL   LCD12864_init
                                           ; SOURCE LINE # 553
0006 7BFF              MOV     R3,#0FFH
0008 7A00        R     MOV     R2,#HIGH ?SC_234
000A 7900        R     MOV     R1,#LOW ?SC_234
000C 750000      R     MOV     ?_LCD12864_showstring?BYTE+05H,#00H
000F 750002      R     MOV     ?_LCD12864_showstring?BYTE+06H,#02H
0012 E4                CLR     A
0013 FD                MOV     R5,A
0014 FC                MOV     R4,A
0015 120000      R     LCALL   _LCD12864_showstring
0018         ?C0317:
                                           ; SOURCE LINE # 554
0018 209003            JB      ENTER,$ + 6H
001B 020000      R     LJMP    ?C0318
                                           ; SOURCE LINE # 555
                                           ; SOURCE LINE # 556
001E E500        R     MOV     A,start
0020 2401              ADD     A,#01H
0022 120000      R     LCALL   L?0439
                                           ; SOURCE LINE # 557
0025 7B00              MOV     R3,#00H
0027 7A00        R     MOV     R2,#HIGH numberstring
0029 7900        R     MOV     R1,#LOW numberstring
002B 120000      R     LCALL   L?0436
                                           ; SOURCE LINE # 558
002E 7400        R     MOV     A,#LOW playerrank
0030 2500        R     ADD     A,start
0032 F8                MOV     R0,A
0033 E6                MOV     A,@R0
0034 75F003            MOV     B,#03H
0037 A4                MUL     AB
0038 2400        R     ADD     A,#LOW playerlist
003A F582              MOV     DPL,A
003C E4                CLR     A
003D 3400        R     ADDC    A,#HIGH playerlist
003F F583              MOV     DPH,A
0041 E4                CLR     A
0042 93                MOVC    A,@A+DPTR
0043 FB                MOV     R3,A
0044 7401              MOV     A,#01H
0046 93                MOVC    A,@A+DPTR
C51 COMPILER V9.00   MAIN                                                                  04/20/2021 21:02:48 PAGE 69  

0047 FA                MOV     R2,A
0048 7402              MOV     A,#02H
004A 93                MOVC    A,@A+DPTR
004B F9                MOV     R1,A
004C 750000      R     MOV     ?_LCD12864_showstring?BYTE+05H,#00H
004F 750001      R     MOV     ?_LCD12864_showstring?BYTE+06H,#01H
0052 7D01              MOV     R5,#01H
0054 7C00              MOV     R4,#00H
0056 120000      R     LCALL   _LCD12864_showstring
                                           ; SOURCE LINE # 559
0059 7400        R     MOV     A,#LOW playerrank
005B 2500        R     ADD     A,start
005D F8                MOV     R0,A
005E E6                MOV     A,@R0
005F 2400        R     ADD     A,#LOW score
0061 F582              MOV     DPL,A
0063 E4                CLR     A
0064 3400        R     ADDC    A,#HIGH score
0066 F583              MOV     DPH,A
0068 7D01              MOV     R5,#01H
006A 120000      R     LCALL   L?0444
                                           ; SOURCE LINE # 560
006D E500        R     MOV     A,start
006F 2402              ADD     A,#02H
0071 120000      R     LCALL   L?0439
                                           ; SOURCE LINE # 561
0074 7B00              MOV     R3,#00H
0076 7A00        R     MOV     R2,#HIGH numberstring
0078 7900        R     MOV     R1,#LOW numberstring
007A E4                CLR     A
007B F500        R     MOV     ?_LCD12864_showstring?BYTE+05H,A
007D F500        R     MOV     ?_LCD12864_showstring?BYTE+06H,A
007F 7D02              MOV     R5,#02H
0081 FC                MOV     R4,A
0082 120000      R     LCALL   _LCD12864_showstring
                                           ; SOURCE LINE # 562
0085 7400        R     MOV     A,#LOW playerrank+01H
0087 2500        R     ADD     A,start
0089 F8                MOV     R0,A
008A E6                MOV     A,@R0
008B 75F003            MOV     B,#03H
008E A4                MUL     AB
008F 2400        R     ADD     A,#LOW playerlist
0091 F582              MOV     DPL,A
0093 E4                CLR     A
0094 3400        R     ADDC    A,#HIGH playerlist
0096 F583              MOV     DPH,A
0098 E4                CLR     A
0099 93                MOVC    A,@A+DPTR
009A FB                MOV     R3,A
009B 7401              MOV     A,#01H
009D 93                MOVC    A,@A+DPTR
009E FA                MOV     R2,A
009F 7402              MOV     A,#02H
00A1 93                MOVC    A,@A+DPTR
00A2 F9                MOV     R1,A
00A3 750000      R     MOV     ?_LCD12864_showstring?BYTE+05H,#00H
00A6 750001      R     MOV     ?_LCD12864_showstring?BYTE+06H,#01H
00A9 7D02              MOV     R5,#02H
00AB 7C00              MOV     R4,#00H
00AD 120000      R     LCALL   _LCD12864_showstring
                                           ; SOURCE LINE # 563
C51 COMPILER V9.00   MAIN                                                                  04/20/2021 21:02:48 PAGE 70  

00B0 7400        R     MOV     A,#LOW playerrank+01H
00B2 2500        R     ADD     A,start
00B4 F8                MOV     R0,A
00B5 E6                MOV     A,@R0
00B6 2400        R     ADD     A,#LOW score
00B8 F582              MOV     DPL,A
00BA E4                CLR     A
00BB 3400        R     ADDC    A,#HIGH score
00BD F583              MOV     DPH,A
00BF 7D02              MOV     R5,#02H
00C1 120000      R     LCALL   L?0444
                                           ; SOURCE LINE # 564
00C4 E500        R     MOV     A,start
00C6 2403              ADD     A,#03H
00C8 FF                MOV     R7,A
00C9 E4                CLR     A
00CA 33                RLC     A
00CB FE                MOV     R6,A
00CC EF                MOV     A,R7
00CD 640A              XRL     A,#0AH
00CF 4E                ORL     A,R6
00D0 7008              JNZ     ?C0319
                                           ; SOURCE LINE # 565
00D2 7BFF              MOV     R3,#0FFH
00D4 7A00        R     MOV     R2,#HIGH ?SC_243
00D6 7900        R     MOV     R1,#LOW ?SC_243
00D8 800E              SJMP    ?C0433
00DA         ?C0319:
                                           ; SOURCE LINE # 567
                                           ; SOURCE LINE # 568
00DA E500        R     MOV     A,start
00DC 2403              ADD     A,#03H
00DE 120000      R     LCALL   L?0440
                                           ; SOURCE LINE # 569
00E1 7B00              MOV     R3,#00H
00E3 7A00        R     MOV     R2,#HIGH numberstring
00E5 7900        R     MOV     R1,#LOW numberstring
00E7 E4                CLR     A
00E8         ?C0433:
00E8 F500        R     MOV     ?_LCD12864_showstring?BYTE+05H,A
00EA F500        R     MOV     ?_LCD12864_showstring?BYTE+06H,A
00EC 7D03              MOV     R5,#03H
00EE FC                MOV     R4,A
00EF 120000      R     LCALL   _LCD12864_showstring
                                           ; SOURCE LINE # 570
00F2         ?C0320:
                                           ; SOURCE LINE # 571
00F2 7400        R     MOV     A,#LOW playerrank+02H
00F4 2500        R     ADD     A,start
00F6 F8                MOV     R0,A
00F7 E6                MOV     A,@R0
00F8 75F003            MOV     B,#03H
00FB A4                MUL     AB
00FC 2400        R     ADD     A,#LOW playerlist
00FE F582              MOV     DPL,A
0100 E4                CLR     A
0101 3400        R     ADDC    A,#HIGH playerlist
0103 F583              MOV     DPH,A
0105 E4                CLR     A
0106 93                MOVC    A,@A+DPTR
0107 FB                MOV     R3,A
0108 7401              MOV     A,#01H
C51 COMPILER V9.00   MAIN                                                                  04/20/2021 21:02:48 PAGE 71  

010A 93                MOVC    A,@A+DPTR
010B FA                MOV     R2,A
010C 7402              MOV     A,#02H
010E 93                MOVC    A,@A+DPTR
010F F9                MOV     R1,A
0110 750000      R     MOV     ?_LCD12864_showstring?BYTE+05H,#00H
0113 750001      R     MOV     ?_LCD12864_showstring?BYTE+06H,#01H
0116 7D03              MOV     R5,#03H
0118 7C00              MOV     R4,#00H
011A 120000      R     LCALL   _LCD12864_showstring
                                           ; SOURCE LINE # 572
011D 7400        R     MOV     A,#LOW playerrank+02H
011F 2500        R     ADD     A,start
0121 F8                MOV     R0,A
0122 E6                MOV     A,@R0
0123 2400        R     ADD     A,#LOW score
0125 F582              MOV     DPL,A
0127 E4                CLR     A
0128 3400        R     ADDC    A,#HIGH score
012A F583              MOV     DPH,A
012C E0                MOVX    A,@DPTR
012D 75F00A            MOV     B,#0AH
0130 A4                MUL     AB
0131 FF                MOV     R7,A
0132 AEF0              MOV     R6,B
0134 7D03              MOV     R5,#03H
0136 120000      R     LCALL   _shownum
0139         ?C0321:
                                           ; SOURCE LINE # 573
0139 209217            JB      RIGHT,?C0325
                                           ; SOURCE LINE # 574
                                           ; SOURCE LINE # 575
013C E500        R     MOV     A,start
013E C3                CLR     C
013F 9407              SUBB    A,#07H
0141 5006              JNC     ?C0323
0143 E500        R     MOV     A,start
0145 04                INC     A
0146 FF                MOV     R7,A
0147 8002              SJMP    ?C0324
0149         ?C0323:
0149 7F07              MOV     R7,#07H
014B         ?C0324:
                                           ; SOURCE LINE # 576
014B 120000      R     LCALL   L?0434
                                           ; SOURCE LINE # 577
014E 120000      R     LCALL   L?0450
                                           ; SOURCE LINE # 578
0151 80E6              SJMP    ?C0321
0153         ?C0325:
                                           ; SOURCE LINE # 579
0153 309103            JNB     LEFT,$ + 6H
0156 020000      R     LJMP    ?C0317
                                           ; SOURCE LINE # 580
                                           ; SOURCE LINE # 581
0159 E500        R     MOV     A,start
015B 6004              JZ      ?C0327
015D 14                DEC     A
015E FF                MOV     R7,A
015F 8002              SJMP    ?C0328
0161         ?C0327:
0161 7F00              MOV     R7,#00H
C51 COMPILER V9.00   MAIN                                                                  04/20/2021 21:02:48 PAGE 72  

0163         ?C0328:
                                           ; SOURCE LINE # 582
0163 120000      R     LCALL   L?0434
                                           ; SOURCE LINE # 583
0166 120000      R     LCALL   L?0450
                                           ; SOURCE LINE # 584
0169 80E8              SJMP    ?C0325
                                           ; SOURCE LINE # 585
016B         ?C0318:
                                           ; SOURCE LINE # 586
016B D290              SETB    ENTER
                                           ; SOURCE LINE # 587
016D 22                RET     
             ; FUNCTION showscore (END)

             ; FUNCTION L?0444 (BEGIN)
0000 E0                MOVX    A,@DPTR
0001 75F00A            MOV     B,#0AH
0004 A4                MUL     AB
0005 FF                MOV     R7,A
0006 AEF0              MOV     R6,B
             ; FUNCTION _shownum (BEGIN)
                                           ; SOURCE LINE # 588
0008 8D00        R     MOV     y,R5
;---- Variable 'num' assigned to Register 'R6/R7' ----
                                           ; SOURCE LINE # 589
                                           ; SOURCE LINE # 590
000A 120000      R     LCALL   L?0441
                                           ; SOURCE LINE # 591
000D 7B00              MOV     R3,#00H
000F 7A00        R     MOV     R2,#HIGH numberstring
0011 7900        R     MOV     R1,#LOW numberstring
0013 120000      R     LCALL   _String_strlen
0016 8F00        R     MOV     length,R7
                                           ; SOURCE LINE # 592
0018 E500        R     MOV     A,length
001A 30E022            JNB     ACC.0,?C0330
                                           ; SOURCE LINE # 593
                                           ; SOURCE LINE # 594
001D 750000      R     MOV     ?_String_mergestring?BYTE+03H,#00H
0020 750000      R     MOV     ?_String_mergestring?BYTE+04H,#HIGH numberstring
0023 750000      R     MOV     ?_String_mergestring?BYTE+05H,#LOW numberstring
0026 750001      R     MOV     ?_String_mergestring?BYTE+06H,#01H
0029 F500        R     MOV     ?_String_mergestring?BYTE+07H,A
002B 750000      R     MOV     ?_String_mergestring?BYTE+08H,#00H
002E 750000      R     MOV     ?_String_mergestring?BYTE+09H,#HIGH numberstring
0031 750000      R     MOV     ?_String_mergestring?BYTE+0AH,#LOW numberstring
0034 7BFF              MOV     R3,#0FFH
0036 7A00        R     MOV     R2,#HIGH ?SC_295
0038 7900        R     MOV     R1,#LOW ?SC_295
003A 120000      R     LCALL   _String_mergestring
                                           ; SOURCE LINE # 595
003D 0500        R     INC     length
                                           ; SOURCE LINE # 596
003F         ?C0330:
                                           ; SOURCE LINE # 597
003F 7B00              MOV     R3,#00H
0041 7A00        R     MOV     R2,#HIGH numberstring
0043 7900        R     MOV     R1,#LOW numberstring
0045 E500        R     MOV     A,y
0047 FD                MOV     R5,A
0048 7C00              MOV     R4,#00H
C51 COMPILER V9.00   MAIN                                                                  04/20/2021 21:02:48 PAGE 73  

004A E500        R     MOV     A,length
004C C3                CLR     C
004D 13                RRC     A
004E FF                MOV     R7,A
004F C3                CLR     C
0050 7408              MOV     A,#08H
0052 9F                SUBB    A,R7
0053 F500        R     MOV     ?_LCD12864_showstring?BYTE+06H,A
0055 E4                CLR     A
0056 9400              SUBB    A,#00H
0058 F500        R     MOV     ?_LCD12864_showstring?BYTE+05H,A
005A 020000      R     LJMP    _LCD12864_showstring
             ; FUNCTION _shownum (END)

             ; FUNCTION L?0449 (BEGIN)
0000         L?0450:
0000 7F2C              MOV     R7,#02CH
0002 7E01              MOV     R6,#01H
             ; FUNCTION _delay1ms (BEGIN)
                                           ; SOURCE LINE # 599
;---- Variable 'x' assigned to Register 'R6/R7' ----
                                           ; SOURCE LINE # 600
                                           ; SOURCE LINE # 602
;---- Variable 'i' assigned to Register 'R4/R5' ----
0004 E4                CLR     A
0005 FD                MOV     R5,A
0006 FC                MOV     R4,A
0007         ?C0332:
0007 C3                CLR     C
0008 ED                MOV     A,R5
0009 9F                SUBB    A,R7
000A EC                MOV     A,R4
000B 9E                SUBB    A,R6
000C 501E              JNC     ?C0339
000E 30901B            JNB     ENTER,?C0339
                                           ; SOURCE LINE # 603
;---- Variable 'j' assigned to Register 'R2/R3' ----
0011 E4                CLR     A
0012 FB                MOV     R3,A
0013 FA                MOV     R2,A
0014         ?C0335:
                                           ; SOURCE LINE # 604
0014 209003            JB      ENTER,?C0337
0017 C290              CLR     ENTER
0019 22                RET     
001A         ?C0337:
001A 0B                INC     R3
001B BB0001            CJNE    R3,#00H,?C0407
001E 0A                INC     R2
001F         ?C0407:
001F EB                MOV     A,R3
0020 646E              XRL     A,#06EH
0022 4A                ORL     A,R2
0023 70EF              JNZ     ?C0335
0025         ?C0334:
0025 0D                INC     R5
0026 BD0001            CJNE    R5,#00H,?C0408
0029 0C                INC     R4
002A         ?C0408:
002A 80DB              SJMP    ?C0332
                                           ; SOURCE LINE # 605
002C         ?C0339:
C51 COMPILER V9.00   MAIN                                                                  04/20/2021 21:02:48 PAGE 74  

002C 22                RET     
             ; FUNCTION _delay1ms (END)

             ; FUNCTION L?0455 (BEGIN)
0000         L?0456:
0000 7F2C              MOV     R7,#02CH
0002 7E01              MOV     R6,#01H
             ; FUNCTION _delay_1ms (BEGIN)
                                           ; SOURCE LINE # 606
;---- Variable 'x' assigned to Register 'R6/R7' ----
                                           ; SOURCE LINE # 607
                                           ; SOURCE LINE # 609
;---- Variable 'i' assigned to Register 'R4/R5' ----
0004 E4                CLR     A
0005 FD                MOV     R5,A
0006 FC                MOV     R4,A
0007         ?C0340:
0007 C3                CLR     C
0008 ED                MOV     A,R5
0009 9F                SUBB    A,R7
000A EC                MOV     A,R4
000B 9E                SUBB    A,R6
000C 5015              JNC     ?C0346
                                           ; SOURCE LINE # 610
;---- Variable 'j' assigned to Register 'R2/R3' ----
000E E4                CLR     A
000F FB                MOV     R3,A
0010 FA                MOV     R2,A
0011         ?C0343:
0011 0B                INC     R3
0012 BB0001            CJNE    R3,#00H,?C0409
0015 0A                INC     R2
0016         ?C0409:
0016 EB                MOV     A,R3
0017 646E              XRL     A,#06EH
0019 4A                ORL     A,R2
001A 70F5              JNZ     ?C0343
001C         ?C0342:
001C 0D                INC     R5
001D BD0001            CJNE    R5,#00H,?C0410
0020 0C                INC     R4
0021         ?C0410:
0021 80E4              SJMP    ?C0340
                                           ; SOURCE LINE # 612
0023         ?C0346:
0023 22                RET     
             ; FUNCTION _delay_1ms (END)

             ; FUNCTION L?0454 (BEGIN)
0000 7B06              MOV     R3,#06H
0002 7A00              MOV     R2,#00H
0004 E4                CLR     A
0005 FD                MOV     R5,A
0006 FC                MOV     R4,A
             ; FUNCTION _random (BEGIN)
                                           ; SOURCE LINE # 613
0007 8C00        R     MOV     a,R4
0009 8D00        R     MOV     a+01H,R5
000B 8A00        R     MOV     b,R2
000D 8B00        R     MOV     b+01H,R3
;---- Variable 'seed' assigned to Register 'R6/R7' ----
                                           ; SOURCE LINE # 614
C51 COMPILER V9.00   MAIN                                                                  04/20/2021 21:02:48 PAGE 75  

                                           ; SOURCE LINE # 615
000F 120000      E     LCALL   _srand
                                           ; SOURCE LINE # 616
0012 120000      E     LCALL   rand
0015 C3                CLR     C
0016 E500        R     MOV     A,b+01H
0018 9500        R     SUBB    A,a+01H
001A CD                XCH     A,R5
001B E500        R     MOV     A,b
001D 9500        R     SUBB    A,a
001F CD                XCH     A,R5
0020 2401              ADD     A,#01H
0022 CD                XCH     A,R5
0023 3400              ADDC    A,#00H
0025 FC                MOV     R4,A
0026 120000      E     LCALL   ?C?UIDIV
0029 E500        R     MOV     A,a+01H
002B 2D                ADD     A,R5
002C FF                MOV     R7,A
002D E500        R     MOV     A,a
002F 3C                ADDC    A,R4
0030 FE                MOV     R6,A
                                           ; SOURCE LINE # 617
0031         ?C0347:
0031 22                RET     
             ; FUNCTION _random (END)

             ; FUNCTION main (BEGIN)
                                           ; SOURCE LINE # 3
                                           ; SOURCE LINE # 4
                                           ; SOURCE LINE # 5
0000 C280              CLR     gnd
0002         ?C0348:
                                           ; SOURCE LINE # 6
                                           ; SOURCE LINE # 7
                                           ; SOURCE LINE # 8
0002 120000      R     LCALL   setup
                                           ; SOURCE LINE # 9
0005 120000      R     LCALL   mainmenu
                                           ; SOURCE LINE # 10
0008 120000      R     LCALL   chooseplayer
                                           ; SOURCE LINE # 11
000B 120000      R     LCALL   choosedifficulty
                                           ; SOURCE LINE # 12
000E 120000      R     LCALL   game
                                           ; SOURCE LINE # 13
0011 120000      R     LCALL   showscore
                                           ; SOURCE LINE # 14
0014 80EC              SJMP    ?C0348
             ; FUNCTION main (END)

C51 COMPILER V9.00   MAIN                                                                  04/20/2021 21:02:48 PAGE 76  

NAME                                    CLASS   MSPACE  TYPE    OFFSET  SIZE
====                                    =====   ======  ====    ======  ====


Downcommand. . . . . . . . . . . . . .  PUBLIC   CODE   PROC     0000H  -----
SHIFT. . . . . . . . . . . . . . . . .  ABSBIT   -----  BIT      0094H  1
RIGHT. . . . . . . . . . . . . . . . .  ABSBIT   -----  BIT      0092H  1
ENTER. . . . . . . . . . . . . . . . .  ABSBIT   -----  BIT      0090H  1
_LCD12864_write_cmd. . . . . . . . . .  PUBLIC   CODE   PROC     0005H  -----
  cmd. . . . . . . . . . . . . . . . .  AUTO     DATA   U_CHAR   0000H  1
P0 . . . . . . . . . . . . . . . . . .  SFR      DATA   U_CHAR   0080H  1
P1 . . . . . . . . . . . . . . . . . .  SFR      DATA   U_CHAR   0090H  1
_LCD12864_set_GDRAMadd . . . . . . . .  PUBLIC   CODE   PROC     0004H  -----
  x. . . . . . . . . . . . . . . . . .  AUTO     DATA   U_CHAR   0000H  1
  y. . . . . . . . . . . . . . . . . .  * REG *  DATA   U_CHAR   0005H  1
P2 . . . . . . . . . . . . . . . . . .  SFR      DATA   U_CHAR   00A0H  1
_LCD12864_display_CGRAM. . . . . . . .  PUBLIC   CODE   PROC     0000H  -----
  num. . . . . . . . . . . . . . . . .  AUTO     DATA   U_CHAR   0000H  1
  x. . . . . . . . . . . . . . . . . .  * REG *  DATA   U_CHAR   0007H  1
  y. . . . . . . . . . . . . . . . . .  * REG *  DATA   U_CHAR   0006H  1
P3 . . . . . . . . . . . . . . . . . .  SFR      DATA   U_CHAR   00B0H  1
T0 . . . . . . . . . . . . . . . . . .  ABSBIT   -----  BIT      00B4H  1
AC . . . . . . . . . . . . . . . . . .  ABSBIT   -----  BIT      00D6H  1
_random. . . . . . . . . . . . . . . .  PUBLIC   CODE   PROC     0007H  -----
  seed . . . . . . . . . . . . . . . .  * REG *  DATA   U_INT    0006H  2
  a. . . . . . . . . . . . . . . . . .  AUTO     DATA   U_INT    0000H  2
  b. . . . . . . . . . . . . . . . . .  AUTO     DATA   U_INT    0002H  2
_delay_1ms . . . . . . . . . . . . . .  PUBLIC   CODE   PROC     0004H  -----
  x. . . . . . . . . . . . . . . . . .  * REG *  DATA   U_INT    0006H  2
  i. . . . . . . . . . . . . . . . . .  * REG *  DATA   U_INT    0004H  2
  j. . . . . . . . . . . . . . . . . .  * REG *  DATA   U_INT    0002H  2
_String_strcpy . . . . . . . . . . . .  PUBLIC   CODE   PROC     0000H  -----
  a. . . . . . . . . . . . . . . . . .  AUTO     DATA   PTR      0000H  3
  b. . . . . . . . . . . . . . . . . .  AUTO     DATA   PTR      0003H  3
  len. . . . . . . . . . . . . . . . .  AUTO     DATA   U_INT    0006H  2
  i. . . . . . . . . . . . . . . . . .  * REG *  DATA   U_CHAR   0007H  1
T1 . . . . . . . . . . . . . . . . . .  ABSBIT   -----  BIT      00B5H  1
present. . . . . . . . . . . . . . . .  PUBLIC   DATA   STRUCT   0000H  35
length . . . . . . . . . . . . . . . .  PUBLIC   DATA   U_CHAR   0023H  1
T2 . . . . . . . . . . . . . . . . . .  ABSBIT   -----  BIT      0090H  1
EA . . . . . . . . . . . . . . . . . .  ABSBIT   -----  BIT      00AFH  1
Hbit . . . . . . . . . . . . . . . . .  PUBLIC   DATA   U_CHAR   0024H  1
_String_mergestring. . . . . . . . . .  PUBLIC   CODE   PROC     0000H  -----
  a. . . . . . . . . . . . . . . . . .  AUTO     DATA   PTR      0000H  3
  b. . . . . . . . . . . . . . . . . .  AUTO     DATA   PTR      0003H  3
  len1 . . . . . . . . . . . . . . . .  AUTO     DATA   U_CHAR   0006H  1
  len2 . . . . . . . . . . . . . . . .  AUTO     DATA   U_CHAR   0007H  1
  c. . . . . . . . . . . . . . . . . .  AUTO     DATA   PTR      0008H  3
  temp . . . . . . . . . . . . . . . .  AUTO     DATA   ARRAY    000BH  21
  i. . . . . . . . . . . . . . . . . .  AUTO     DATA   U_CHAR   0020H  1
Lbit . . . . . . . . . . . . . . . . .  PUBLIC   DATA   U_CHAR   0025H  1
IE . . . . . . . . . . . . . . . . . .  SFR      DATA   U_CHAR   00A8H  1
_LCD12864_pos. . . . . . . . . . . . .  PUBLIC   CODE   PROC     0011H  -----
  x. . . . . . . . . . . . . . . . . .  * REG *  DATA   U_CHAR   0007H  1
  y. . . . . . . . . . . . . . . . . .  * REG *  DATA   U_CHAR   0005H  1
HISCORE. . . . . . . . . . . . . . . .  PUBLIC   DATA   U_INT    0026H  2
LCD12864_clear_DDRAM . . . . . . . . .  PUBLIC   CODE   PROC     0000H  -----
size_t . . . . . . . . . . . . . . . .  TYPEDEF  -----  U_INT    -----  2
LCD12864_clear_GDRAM . . . . . . . . .  PUBLIC   CODE   PROC     0000H  -----
  i. . . . . . . . . . . . . . . . . .  AUTO     DATA   U_CHAR   0000H  1
  j. . . . . . . . . . . . . . . . . .  AUTO     DATA   U_CHAR   0001H  1
C51 COMPILER V9.00   MAIN                                                                  04/20/2021 21:02:48 PAGE 77  

NAME                                    CLASS   MSPACE  TYPE    OFFSET  SIZE
====                                    =====   ======  ====    ======  ====


updateWithoutInput . . . . . . . . . .  PUBLIC   CODE   PROC     0000H  -----
_shownum . . . . . . . . . . . . . . .  PUBLIC   CODE   PROC     0008H  -----
  num. . . . . . . . . . . . . . . . .  * REG *  DATA   U_INT    0006H  2
  y. . . . . . . . . . . . . . . . . .  AUTO     DATA   U_CHAR   0000H  1
EXF2 . . . . . . . . . . . . . . . . .  ABSBIT   -----  BIT      00CEH  1
RD . . . . . . . . . . . . . . . . . .  ABSBIT   -----  BIT      00B7H  1
chooseplayer . . . . . . . . . . . . .  PUBLIC   CODE   PROC     0000H  -----
isdown . . . . . . . . . . . . . . . .  PUBLIC   CODE   PROC     0000H  -----
  i. . . . . . . . . . . . . . . . . .  * REG *  DATA   CHAR     0007H  1
  j. . . . . . . . . . . . . . . . . .  * REG *  DATA   CHAR     0006H  1
  temp . . . . . . . . . . . . . . . .  AUTO     DATA   U_CHAR   0000H  1
  tmp. . . . . . . . . . . . . . . . .  * REG *  DATA   U_CHAR   0001H  1
  x. . . . . . . . . . . . . . . . . .  AUTO     DATA   CHAR     0001H  1
  y. . . . . . . . . . . . . . . . . .  AUTO     DATA   CHAR     0002H  1
ES . . . . . . . . . . . . . . . . . .  ABSBIT   -----  BIT      00ACH  1
IP . . . . . . . . . . . . . . . . . .  SFR      DATA   U_CHAR   00B8H  1
_LCD12864_drawpoint. . . . . . . . . .  PUBLIC   CODE   PROC     0000H  -----
  x. . . . . . . . . . . . . . . . . .  AUTO     DATA   U_CHAR   0000H  1
  y. . . . . . . . . . . . . . . . . .  AUTO     DATA   U_CHAR   0001H  1
  flag . . . . . . . . . . . . . . . .  AUTO     DATA   U_CHAR   0002H  1
  fill . . . . . . . . . . . . . . . .  AUTO     DATA   U_CHAR   0003H  1
LCD_PSB. . . . . . . . . . . . . . . .  ABSBIT   -----  BIT      0094H  1
presentshape . . . . . . . . . . . . .  PUBLIC   DATA   STRUCT   0028H  4
_srand . . . . . . . . . . . . . . . .  EXTERN   CODE   PROC     -----  -----
_LCD12864_showstring . . . . . . . . .  PUBLIC   CODE   PROC     0010H  -----
  p. . . . . . . . . . . . . . . . . .  AUTO     DATA   PTR      0000H  3
  row. . . . . . . . . . . . . . . . .  AUTO     DATA   U_INT    0003H  2
  col. . . . . . . . . . . . . . . . .  AUTO     DATA   U_INT    0005H  2
  i. . . . . . . . . . . . . . . . . .  AUTO     DATA   U_CHAR   0007H  1
RI . . . . . . . . . . . . . . . . . .  ABSBIT   -----  BIT      0098H  1
isover . . . . . . . . . . . . . . . .  PUBLIC   CODE   PROC     0000H  -----
  i. . . . . . . . . . . . . . . . . .  * REG *  DATA   U_CHAR   0005H  1
  temp . . . . . . . . . . . . . . . .  * REG *  DATA   U_CHAR   0007H  1
  tmp. . . . . . . . . . . . . . . . .  * REG *  DATA   U_CHAR   0006H  1
  y. . . . . . . . . . . . . . . . . .  * REG *  DATA   CHAR     0004H  1
game . . . . . . . . . . . . . . . . .  PUBLIC   CODE   PROC     0000H  -----
INT0 . . . . . . . . . . . . . . . . .  ABSBIT   -----  BIT      00B2H  1
CY . . . . . . . . . . . . . . . . . .  ABSBIT   -----  BIT      00D7H  1
_LCD12864_display_image. . . . . . . .  PUBLIC   CODE   PROC     0000H  -----
  p. . . . . . . . . . . . . . . . . .  AUTO     DATA   PTR      0000H  3
  i. . . . . . . . . . . . . . . . . .  AUTO     DATA   U_CHAR   0003H  1
  j. . . . . . . . . . . . . . . . . .  AUTO     DATA   U_CHAR   0004H  1
TI . . . . . . . . . . . . . . . . . .  ABSBIT   -----  BIT      0099H  1
INT1 . . . . . . . . . . . . . . . . .  ABSBIT   -----  BIT      00B3H  1
score. . . . . . . . . . . . . . . . .  PUBLIC   XDATA  ARRAY    0000H  10
page . . . . . . . . . . . . . . . . .  PUBLIC   DATA   U_CHAR   002CH  1
RCAP2H . . . . . . . . . . . . . . . .  SFR      DATA   U_CHAR   00CBH  1
PS . . . . . . . . . . . . . . . . . .  ABSBIT   -----  BIT      00BCH  1
SP . . . . . . . . . . . . . . . . . .  SFR      DATA   U_CHAR   0081H  1
gamefoward . . . . . . . . . . . . . .  PUBLIC   DATA   U_CHAR   002DH  1
T2EX . . . . . . . . . . . . . . . . .  ABSBIT   -----  BIT      0091H  1
_delay1ms. . . . . . . . . . . . . . .  PUBLIC   CODE   PROC     0004H  -----
  x. . . . . . . . . . . . . . . . . .  * REG *  DATA   U_INT    0006H  2
  i. . . . . . . . . . . . . . . . . .  * REG *  DATA   U_INT    0004H  2
  j. . . . . . . . . . . . . . . . . .  * REG *  DATA   U_INT    0002H  2
OV . . . . . . . . . . . . . . . . . .  ABSBIT   -----  BIT      00D2H  1
RCAP2L . . . . . . . . . . . . . . . .  SFR      DATA   U_CHAR   00CAH  1
C51 COMPILER V9.00   MAIN                                                                  04/20/2021 21:02:48 PAGE 78  

NAME                                    CLASS   MSPACE  TYPE    OFFSET  SIZE
====                                    =====   ======  ====    ======  ====


main . . . . . . . . . . . . . . . . .  PUBLIC   CODE   PROC     0000H  -----
rand . . . . . . . . . . . . . . . . .  EXTERN   CODE   PROC     -----  -----
_LCD12864_read_GDRAM . . . . . . . . .  PUBLIC   CODE   PROC     0004H  -----
  x. . . . . . . . . . . . . . . . . .  AUTO     DATA   U_CHAR   0000H  1
  y. . . . . . . . . . . . . . . . . .  AUTO     DATA   U_CHAR   0001H  1
_LCD12864_drawrectangle. . . . . . . .  PUBLIC   CODE   PROC     0013H  -----
  x1 . . . . . . . . . . . . . . . . .  AUTO     DATA   U_CHAR   0000H  1
  y1 . . . . . . . . . . . . . . . . .  AUTO     DATA   U_CHAR   0001H  1
  x2 . . . . . . . . . . . . . . . . .  AUTO     DATA   U_CHAR   0002H  1
  y2 . . . . . . . . . . . . . . . . .  AUTO     DATA   U_CHAR   0003H  1
  flag . . . . . . . . . . . . . . . .  AUTO     DATA   U_CHAR   0004H  1
  i. . . . . . . . . . . . . . . . . .  AUTO     DATA   U_CHAR   0005H  1
  j. . . . . . . . . . . . . . . . . .  AUTO     DATA   U_CHAR   0006H  1
  x. . . . . . . . . . . . . . . . . .  * REG *  DATA   U_CHAR   0007H  1
  y. . . . . . . . . . . . . . . . . .  AUTO     DATA   U_CHAR   0007H  1
  z. . . . . . . . . . . . . . . . . .  AUTO     DATA   U_CHAR   0008H  1
  fill . . . . . . . . . . . . . . . .  AUTO     DATA   U_CHAR   0009H  1
  k. . . . . . . . . . . . . . . . . .  AUTO     DATA   CHAR     000AH  1
numberstring . . . . . . . . . . . . .  PUBLIC   DATA   ARRAY    002EH  10
C_T2 . . . . . . . . . . . . . . . . .  ABSBIT   -----  BIT      00C9H  1
WR . . . . . . . . . . . . . . . . . .  ABSBIT   -----  BIT      00B6H  1
LEFT . . . . . . . . . . . . . . . . .  ABSBIT   -----  BIT      0091H  1
ddd. . . . . . . . . . . . . . . . . .  PUBLIC   CODE   ARRAY    0153H  245
RCLK . . . . . . . . . . . . . . . . .  ABSBIT   -----  BIT      00CDH  1
_String_numtostring. . . . . . . . . .  PUBLIC   CODE   PROC     000AH  -----
  num. . . . . . . . . . . . . . . . .  * REG *  DATA   U_INT    0082H  2
  p. . . . . . . . . . . . . . . . . .  AUTO     DATA   PTR      0000H  3
  i. . . . . . . . . . . . . . . . . .  AUTO     DATA   U_INT    0003H  2
  temp . . . . . . . . . . . . . . . .  AUTO     DATA   U_INT    0005H  2
  count. . . . . . . . . . . . . . . .  AUTO     DATA   U_INT    0007H  2
TCLK . . . . . . . . . . . . . . . . .  ABSBIT   -----  BIT      00CCH  1
SBUF . . . . . . . . . . . . . . . . .  SFR      DATA   U_CHAR   0099H  1
PCON . . . . . . . . . . . . . . . . .  SFR      DATA   U_CHAR   0087H  1
setup. . . . . . . . . . . . . . . . .  PUBLIC   CODE   PROC     0000H  -----
  i. . . . . . . . . . . . . . . . . .  * REG *  DATA   U_CHAR   0007H  1
  j. . . . . . . . . . . . . . . . . .  * REG *  DATA   U_CHAR   0006H  1
SCON . . . . . . . . . . . . . . . . .  SFR      DATA   U_CHAR   0098H  1
TMOD . . . . . . . . . . . . . . . . .  SFR      DATA   U_CHAR   0089H  1
TCON . . . . . . . . . . . . . . . . .  SFR      DATA   U_CHAR   0088H  1
temp . . . . . . . . . . . . . . . . .  PUBLIC   DATA   U_CHAR   0038H  1
DOWN . . . . . . . . . . . . . . . . .  ABSBIT   -----  BIT      0093H  1
playertotal. . . . . . . . . . . . . .  PUBLIC   DATA   U_CHAR   0039H  1
gnd. . . . . . . . . . . . . . . . . .  ABSBIT   -----  BIT      0080H  1
updateWithInput. . . . . . . . . . . .  PUBLIC   CODE   PROC     0000H  -----
  i. . . . . . . . . . . . . . . . . .  AUTO     DATA   U_INT    0000H  2
  j. . . . . . . . . . . . . . . . . .  AUTO     DATA   U_INT    0002H  2
  time . . . . . . . . . . . . . . . .  AUTO     DATA   U_CHAR   0004H  1
resetshape . . . . . . . . . . . . . .  PUBLIC   CODE   PROC     0000H  -----
rectangle. . . . . . . . . . . . . . .  PUBLIC   XDATA  ARRAY    000AH  240
IE0. . . . . . . . . . . . . . . . . .  ABSBIT   -----  BIT      0089H  1
IE1. . . . . . . . . . . . . . . . . .  ABSBIT   -----  BIT      008BH  1
choosedifficulty . . . . . . . . . . .  PUBLIC   CODE   PROC     0000H  -----
playerrank . . . . . . . . . . . . . .  PUBLIC   DATA   ARRAY    003AH  10
NEXT . . . . . . . . . . . . . . . . .  PUBLIC   DATA   U_CHAR   0044H  1
B. . . . . . . . . . . . . . . . . . .  SFR      DATA   U_CHAR   00F0H  1
presentinfomation. . . . . . . . . . .  * TAG *  -----  STRUCT   -----  4
  shapenum . . . . . . . . . . . . . .  MEMBER   -----  U_CHAR   0000H  1
C51 COMPILER V9.00   MAIN                                                                  04/20/2021 21:02:48 PAGE 79  

NAME                                    CLASS   MSPACE  TYPE    OFFSET  SIZE
====                                    =====   ======  ====    ======  ====


  centerx. . . . . . . . . . . . . . .  MEMBER   -----  CHAR     0001H  1
  centery. . . . . . . . . . . . . . .  MEMBER   -----  CHAR     0002H  1
  status . . . . . . . . . . . . . . .  MEMBER   -----  U_CHAR   0003H  1
shapeinformation . . . . . . . . . . .  * TAG *  -----  STRUCT   -----  35
  centernum. . . . . . . . . . . . . .  MEMBER   -----  U_CHAR   0000H  1
  shape. . . . . . . . . . . . . . . .  MEMBER   -----  ARRAY    0001H  32
  statusnum. . . . . . . . . . . . . .  MEMBER   -----  U_CHAR   0021H  1
  blockcnt . . . . . . . . . . . . . .  MEMBER   -----  U_CHAR   0022H  1
gamemode . . . . . . . . . . . . . . .  PUBLIC   DATA   U_CHAR   0045H  1
CP_RL2 . . . . . . . . . . . . . . . .  ABSBIT   -----  BIT      00C8H  1
LCD_EN . . . . . . . . . . . . . . . .  ABSBIT   -----  BIT      0095H  1
ACC. . . . . . . . . . . . . . . . . .  SFR      DATA   U_CHAR   00E0H  1
ET0. . . . . . . . . . . . . . . . . .  ABSBIT   -----  BIT      00A9H  1
ET1. . . . . . . . . . . . . . . . . .  ABSBIT   -----  BIT      00ABH  1
TF0. . . . . . . . . . . . . . . . . .  ABSBIT   -----  BIT      008DH  1
ET2. . . . . . . . . . . . . . . . . .  ABSBIT   -----  BIT      00ADH  1
TF1. . . . . . . . . . . . . . . . . .  ABSBIT   -----  BIT      008FH  1
TF2. . . . . . . . . . . . . . . . . .  ABSBIT   -----  BIT      00CFH  1
RB8. . . . . . . . . . . . . . . . . .  ABSBIT   -----  BIT      009AH  1
TH0. . . . . . . . . . . . . . . . . .  SFR      DATA   U_CHAR   008CH  1
EX0. . . . . . . . . . . . . . . . . .  ABSBIT   -----  BIT      00A8H  1
IT0. . . . . . . . . . . . . . . . . .  ABSBIT   -----  BIT      0088H  1
TH1. . . . . . . . . . . . . . . . . .  SFR      DATA   U_CHAR   008DH  1
TB8. . . . . . . . . . . . . . . . . .  ABSBIT   -----  BIT      009BH  1
EX1. . . . . . . . . . . . . . . . . .  ABSBIT   -----  BIT      00AAH  1
IT1. . . . . . . . . . . . . . . . . .  ABSBIT   -----  BIT      008AH  1
TH2. . . . . . . . . . . . . . . . . .  SFR      DATA   U_CHAR   00CDH  1
P. . . . . . . . . . . . . . . . . . .  ABSBIT   -----  BIT      00D0H  1
playerlist . . . . . . . . . . . . . .  PUBLIC   CODE   ARRAY    0129H  30
SM0. . . . . . . . . . . . . . . . . .  ABSBIT   -----  BIT      009FH  1
TL0. . . . . . . . . . . . . . . . . .  SFR      DATA   U_CHAR   008AH  1
gamesetup. . . . . . . . . . . . . . .  PUBLIC   CODE   PROC     0000H  -----
  i. . . . . . . . . . . . . . . . . .  AUTO     DATA   U_CHAR   0000H  1
  j. . . . . . . . . . . . . . . . . .  AUTO     DATA   U_CHAR   0001H  1
SM1. . . . . . . . . . . . . . . . . .  ABSBIT   -----  BIT      009EH  1
TL1. . . . . . . . . . . . . . . . . .  SFR      DATA   U_CHAR   008BH  1
SM2. . . . . . . . . . . . . . . . . .  ABSBIT   -----  BIT      009DH  1
TL2. . . . . . . . . . . . . . . . . .  SFR      DATA   U_CHAR   00CCH  1
BGM_INT0 . . . . . . . . . . . . . . .  ABSBIT   -----  BIT      0082H  1
BGM_INT1 . . . . . . . . . . . . . . .  ABSBIT   -----  BIT      0083H  1
PT0. . . . . . . . . . . . . . . . . .  ABSBIT   -----  BIT      00B9H  1
PT1. . . . . . . . . . . . . . . . . .  ABSBIT   -----  BIT      00BBH  1
RS0. . . . . . . . . . . . . . . . . .  ABSBIT   -----  BIT      00D3H  1
LCD12864_read_data . . . . . . . . . .  PUBLIC   CODE   PROC     0000H  -----
PT2. . . . . . . . . . . . . . . . . .  ABSBIT   -----  BIT      00BDH  1
TR0. . . . . . . . . . . . . . . . . .  ABSBIT   -----  BIT      008CH  1
RS1. . . . . . . . . . . . . . . . . .  ABSBIT   -----  BIT      00D4H  1
TR1. . . . . . . . . . . . . . . . . .  ABSBIT   -----  BIT      008EH  1
_showshape . . . . . . . . . . . . . .  PUBLIC   CODE   PROC     0004H  -----
  mode . . . . . . . . . . . . . . . .  * REG *  DATA   U_CHAR   0007H  1
  flag . . . . . . . . . . . . . . . .  AUTO     DATA   U_CHAR   0000H  1
  i. . . . . . . . . . . . . . . . . .  AUTO     DATA   U_CHAR   0001H  1
  temp . . . . . . . . . . . . . . . .  AUTO     DATA   U_CHAR   0002H  1
  tmp. . . . . . . . . . . . . . . . .  AUTO     DATA   U_CHAR   0003H  1
  x. . . . . . . . . . . . . . . . . .  AUTO     DATA   CHAR     0004H  1
  y. . . . . . . . . . . . . . . . . .  AUTO     DATA   CHAR     0005H  1
TR2. . . . . . . . . . . . . . . . . .  ABSBIT   -----  BIT      00CAH  1
C51 COMPILER V9.00   MAIN                                                                  04/20/2021 21:02:48 PAGE 80  

NAME                                    CLASS   MSPACE  TYPE    OFFSET  SIZE
====                                    =====   ======  ====    ======  ====


PX0. . . . . . . . . . . . . . . . . .  ABSBIT   -----  BIT      00B8H  1
_LCD12864_drawrectangle1 . . . . . . .  PUBLIC   CODE   PROC     0000H  -----
  x1 . . . . . . . . . . . . . . . . .  AUTO     DATA   U_CHAR   0000H  1
  y1 . . . . . . . . . . . . . . . . .  AUTO     DATA   U_CHAR   0005H  1
  x2 . . . . . . . . . . . . . . . . .  AUTO     DATA   U_CHAR   0002H  1
  y2 . . . . . . . . . . . . . . . . .  AUTO     DATA   U_CHAR   0003H  1
  flag . . . . . . . . . . . . . . . .  AUTO     DATA   U_CHAR   0004H  1
  i. . . . . . . . . . . . . . . . . .  AUTO     DATA   U_CHAR   0005H  1
  j. . . . . . . . . . . . . . . . . .  AUTO     DATA   U_CHAR   0006H  1
LCD_RS . . . . . . . . . . . . . . . .  ABSBIT   -----  BIT      0097H  1
PX1. . . . . . . . . . . . . . . . . .  ABSBIT   -----  BIT      00BAH  1
gameover . . . . . . . . . . . . . . .  PUBLIC   CODE   PROC     0000H  -----
  i. . . . . . . . . . . . . . . . . .  AUTO     DATA   U_CHAR   0000H  1
  j. . . . . . . . . . . . . . . . . .  AUTO     DATA   U_CHAR   0001H  1
  k. . . . . . . . . . . . . . . . . .  AUTO     DATA   U_CHAR   0002H  1
DPH. . . . . . . . . . . . . . . . . .  SFR      DATA   U_CHAR   0083H  1
LCD_RW . . . . . . . . . . . . . . . .  ABSBIT   -----  BIT      0096H  1
mainmenu . . . . . . . . . . . . . . .  PUBLIC   CODE   PROC     0000H  -----
DPL. . . . . . . . . . . . . . . . . .  SFR      DATA   U_CHAR   0082H  1
LCD12864_check_busy. . . . . . . . . .  PUBLIC   CODE   PROC     0000H  -----
showscore. . . . . . . . . . . . . . .  PUBLIC   CODE   PROC     0000H  -----
  start. . . . . . . . . . . . . . . .  AUTO     DATA   U_CHAR   0000H  1
showpage . . . . . . . . . . . . . . .  PUBLIC   CODE   PROC     0000H  -----
playernum. . . . . . . . . . . . . . .  PUBLIC   DATA   U_CHAR   0046H  1
EXEN2. . . . . . . . . . . . . . . . .  ABSBIT   -----  BIT      00CBH  1
moveline . . . . . . . . . . . . . . .  PUBLIC   CODE   PROC     0000H  -----
  i. . . . . . . . . . . . . . . . . .  AUTO     DATA   CHAR     0000H  1
  j. . . . . . . . . . . . . . . . . .  AUTO     DATA   CHAR     0001H  1
  k. . . . . . . . . . . . . . . . . .  AUTO     DATA   CHAR     0002H  1
  count. . . . . . . . . . . . . . . .  AUTO     DATA   U_CHAR   0003H  1
Shiftcommand . . . . . . . . . . . . .  PUBLIC   CODE   PROC     0000H  -----
  temp . . . . . . . . . . . . . . . .  AUTO     DATA   U_CHAR   0000H  1
Rightcommand . . . . . . . . . . . . .  PUBLIC   CODE   PROC     0000H  -----
  i. . . . . . . . . . . . . . . . . .  * REG *  DATA   CHAR     0006H  1
  temp . . . . . . . . . . . . . . . .  * REG *  DATA   U_CHAR   0001H  1
  tmp. . . . . . . . . . . . . . . . .  * REG *  DATA   U_CHAR   0007H  1
  x. . . . . . . . . . . . . . . . . .  * REG *  DATA   CHAR     0004H  1
  y. . . . . . . . . . . . . . . . . .  * REG *  DATA   CHAR     0005H  1
Entercommand . . . . . . . . . . . . .  PUBLIC   CODE   PROC     0000H  -----
  i. . . . . . . . . . . . . . . . . .  * REG *  DATA   U_CHAR   0007H  1
  x. . . . . . . . . . . . . . . . . .  * REG *  DATA   CHAR     0004H  1
  y. . . . . . . . . . . . . . . . . .  * REG *  DATA   CHAR     0001H  1
  temp . . . . . . . . . . . . . . . .  AUTO     DATA   U_CHAR   0000H  1
  tmp. . . . . . . . . . . . . . . . .  AUTO     DATA   U_CHAR   0001H  1
REN. . . . . . . . . . . . . . . . . .  ABSBIT   -----  BIT      009CH  1
_LCD12864_write_data . . . . . . . . .  PUBLIC   CODE   PROC     000AH  -----
  Data . . . . . . . . . . . . . . . .  AUTO     DATA   U_CHAR   0000H  1
T2CON. . . . . . . . . . . . . . . . .  SFR      DATA   U_CHAR   00C8H  1
wchar_t. . . . . . . . . . . . . . . .  TYPEDEF  -----  CHAR     -----  1
RXD. . . . . . . . . . . . . . . . . .  ABSBIT   -----  BIT      00B0H  1
TXD. . . . . . . . . . . . . . . . . .  ABSBIT   -----  BIT      00B1H  1
Leftcommand. . . . . . . . . . . . . .  PUBLIC   CODE   PROC     0000H  -----
  i. . . . . . . . . . . . . . . . . .  * REG *  DATA   CHAR     0006H  1
  temp . . . . . . . . . . . . . . . .  * REG *  DATA   U_CHAR   0001H  1
  tmp. . . . . . . . . . . . . . . . .  * REG *  DATA   U_CHAR   0007H  1
  x. . . . . . . . . . . . . . . . . .  * REG *  DATA   CHAR     0004H  1
  y. . . . . . . . . . . . . . . . . .  * REG *  DATA   CHAR     0005H  1
C51 COMPILER V9.00   MAIN                                                                  04/20/2021 21:02:48 PAGE 81  

NAME                                    CLASS   MSPACE  TYPE    OFFSET  SIZE
====                                    =====   ======  ====    ======  ====


LCD12864_init. . . . . . . . . . . . .  PUBLIC   CODE   PROC     0000H  -----
_LCD12864_SET_CGRAM. . . . . . . . . .  PUBLIC   CODE   PROC     0000H  -----
  num. . . . . . . . . . . . . . . . .  AUTO     DATA   U_CHAR   0000H  1
  p. . . . . . . . . . . . . . . . . .  AUTO     DATA   PTR      0001H  3
  i. . . . . . . . . . . . . . . . . .  AUTO     DATA   U_CHAR   0004H  1
  firstadd . . . . . . . . . . . . . .  AUTO     DATA   U_CHAR   0005H  1
F0 . . . . . . . . . . . . . . . . . .  ABSBIT   -----  BIT      00D5H  1
_String_strlen . . . . . . . . . . . .  PUBLIC   CODE   PROC     0000H  -----
  a. . . . . . . . . . . . . . . . . .  AUTO     DATA   PTR      0000H  3
  i. . . . . . . . . . . . . . . . . .  * REG *  DATA   U_CHAR   0007H  1
timecnt. . . . . . . . . . . . . . . .  PUBLIC   CODE   ARRAY    0147H  12
LEVEL. . . . . . . . . . . . . . . . .  PUBLIC   DATA   U_INT    0047H  2
PSW. . . . . . . . . . . . . . . . . .  SFR      DATA   U_CHAR   00D0H  1
LINES. . . . . . . . . . . . . . . . .  PUBLIC   DATA   U_INT    0049H  2


MODULE INFORMATION:   STATIC OVERLAYABLE
   CODE SIZE        =   5857    ----
   CONSTANT SIZE    =    584    ----
   XDATA SIZE       =    250    ----
   PDATA SIZE       =   ----    ----
   DATA SIZE        =     75     134
   IDATA SIZE       =   ----    ----
   BIT SIZE         =   ----    ----
   EDATA SIZE       =   ----    ----
   HDATA SIZE       =   ----    ----
   XDATA CONST SIZE =   ----    ----
   FAR CONST SIZE   =   ----    ----
END OF MODULE INFORMATION.


C51 COMPILATION COMPLETE.  0 WARNING(S),  0 ERROR(S)
