Component: ARM Compiler 5.06 update 7 (build 960) Tool: armlink [4d3601]

==============================================================================

Section Cross References

    stm32f10x_adc.o(i.ADC_DeInit) refers to stm32f10x_rcc.o(i.RCC_APB2PeriphResetCmd) for RCC_APB2PeriphResetCmd
    stm32f10x_bkp.o(i.BKP_DeInit) refers to stm32f10x_rcc.o(i.RCC_BackupResetCmd) for RCC_BackupResetCmd
    stm32f10x_can.o(i.CAN_DeInit) refers to stm32f10x_rcc.o(i.RCC_APB1PeriphResetCmd) for RCC_APB1PeriphResetCmd
    stm32f10x_can.o(i.CAN_GetITStatus) refers to stm32f10x_can.o(i.CheckITStatus) for CheckITStatus
    stm32f10x_cec.o(i.CEC_DeInit) refers to stm32f10x_rcc.o(i.RCC_APB1PeriphResetCmd) for RCC_APB1PeriphResetCmd
    stm32f10x_dac.o(i.DAC_DeInit) refers to stm32f10x_rcc.o(i.RCC_APB1PeriphResetCmd) for RCC_APB1PeriphResetCmd
    stm32f10x_flash.o(i.FLASH_EnableWriteProtection) refers to stm32f10x_flash.o(i.FLASH_WaitForLastOperation) for FLASH_WaitForLastOperation
    stm32f10x_flash.o(i.FLASH_EraseAllBank1Pages) refers to stm32f10x_flash.o(i.FLASH_WaitForLastBank1Operation) for FLASH_WaitForLastBank1Operation
    stm32f10x_flash.o(i.FLASH_EraseAllPages) refers to stm32f10x_flash.o(i.FLASH_WaitForLastOperation) for FLASH_WaitForLastOperation
    stm32f10x_flash.o(i.FLASH_EraseOptionBytes) refers to stm32f10x_flash.o(i.FLASH_GetReadOutProtectionStatus) for FLASH_GetReadOutProtectionStatus
    stm32f10x_flash.o(i.FLASH_EraseOptionBytes) refers to stm32f10x_flash.o(i.FLASH_WaitForLastOperation) for FLASH_WaitForLastOperation
    stm32f10x_flash.o(i.FLASH_ErasePage) refers to stm32f10x_flash.o(i.FLASH_WaitForLastOperation) for FLASH_WaitForLastOperation
    stm32f10x_flash.o(i.FLASH_ProgramHalfWord) refers to stm32f10x_flash.o(i.FLASH_WaitForLastOperation) for FLASH_WaitForLastOperation
    stm32f10x_flash.o(i.FLASH_ProgramOptionByteData) refers to stm32f10x_flash.o(i.FLASH_WaitForLastOperation) for FLASH_WaitForLastOperation
    stm32f10x_flash.o(i.FLASH_ProgramWord) refers to stm32f10x_flash.o(i.FLASH_WaitForLastOperation) for FLASH_WaitForLastOperation
    stm32f10x_flash.o(i.FLASH_ReadOutProtection) refers to stm32f10x_flash.o(i.FLASH_WaitForLastOperation) for FLASH_WaitForLastOperation
    stm32f10x_flash.o(i.FLASH_UserOptionByteConfig) refers to stm32f10x_flash.o(i.FLASH_WaitForLastOperation) for FLASH_WaitForLastOperation
    stm32f10x_flash.o(i.FLASH_WaitForLastBank1Operation) refers to stm32f10x_flash.o(i.FLASH_GetBank1Status) for FLASH_GetBank1Status
    stm32f10x_flash.o(i.FLASH_WaitForLastOperation) refers to stm32f10x_flash.o(i.FLASH_GetBank1Status) for FLASH_GetBank1Status
    stm32f10x_gpio.o(i.GPIO_AFIODeInit) refers to stm32f10x_rcc.o(i.RCC_APB2PeriphResetCmd) for RCC_APB2PeriphResetCmd
    stm32f10x_gpio.o(i.GPIO_DeInit) refers to stm32f10x_rcc.o(i.RCC_APB2PeriphResetCmd) for RCC_APB2PeriphResetCmd
    stm32f10x_i2c.o(i.I2C_DeInit) refers to stm32f10x_rcc.o(i.RCC_APB1PeriphResetCmd) for RCC_APB1PeriphResetCmd
    stm32f10x_i2c.o(i.I2C_Init) refers to stm32f10x_rcc.o(i.RCC_GetClocksFreq) for RCC_GetClocksFreq
    stm32f10x_pwr.o(i.PWR_DeInit) refers to stm32f10x_rcc.o(i.RCC_APB1PeriphResetCmd) for RCC_APB1PeriphResetCmd
    stm32f10x_rcc.o(i.RCC_GetClocksFreq) refers to stm32f10x_rcc.o(.data) for APBAHBPrescTable
    stm32f10x_rcc.o(i.RCC_WaitForHSEStartUp) refers to stm32f10x_rcc.o(i.RCC_GetFlagStatus) for RCC_GetFlagStatus
    stm32f10x_rtc.o(i.RTC_SetAlarm) refers to stm32f10x_rtc.o(i.RTC_EnterConfigMode) for RTC_EnterConfigMode
    stm32f10x_rtc.o(i.RTC_SetAlarm) refers to stm32f10x_rtc.o(i.RTC_ExitConfigMode) for RTC_ExitConfigMode
    stm32f10x_rtc.o(i.RTC_SetCounter) refers to stm32f10x_rtc.o(i.RTC_EnterConfigMode) for RTC_EnterConfigMode
    stm32f10x_rtc.o(i.RTC_SetCounter) refers to stm32f10x_rtc.o(i.RTC_ExitConfigMode) for RTC_ExitConfigMode
    stm32f10x_rtc.o(i.RTC_SetPrescaler) refers to stm32f10x_rtc.o(i.RTC_EnterConfigMode) for RTC_EnterConfigMode
    stm32f10x_rtc.o(i.RTC_SetPrescaler) refers to stm32f10x_rtc.o(i.RTC_ExitConfigMode) for RTC_ExitConfigMode
    stm32f10x_spi.o(i.I2S_Init) refers to stm32f10x_rcc.o(i.RCC_GetClocksFreq) for RCC_GetClocksFreq
    stm32f10x_spi.o(i.SPI_I2S_DeInit) refers to stm32f10x_rcc.o(i.RCC_APB2PeriphResetCmd) for RCC_APB2PeriphResetCmd
    stm32f10x_spi.o(i.SPI_I2S_DeInit) refers to stm32f10x_rcc.o(i.RCC_APB1PeriphResetCmd) for RCC_APB1PeriphResetCmd
    stm32f10x_tim.o(i.TIM_DeInit) refers to stm32f10x_rcc.o(i.RCC_APB2PeriphResetCmd) for RCC_APB2PeriphResetCmd
    stm32f10x_tim.o(i.TIM_DeInit) refers to stm32f10x_rcc.o(i.RCC_APB1PeriphResetCmd) for RCC_APB1PeriphResetCmd
    stm32f10x_tim.o(i.TIM_ETRClockMode1Config) refers to stm32f10x_tim.o(i.TIM_ETRConfig) for TIM_ETRConfig
    stm32f10x_tim.o(i.TIM_ETRClockMode2Config) refers to stm32f10x_tim.o(i.TIM_ETRConfig) for TIM_ETRConfig
    stm32f10x_tim.o(i.TIM_ICInit) refers to stm32f10x_tim.o(i.TI1_Config) for TI1_Config
    stm32f10x_tim.o(i.TIM_ICInit) refers to stm32f10x_tim.o(i.TIM_SetIC1Prescaler) for TIM_SetIC1Prescaler
    stm32f10x_tim.o(i.TIM_ICInit) refers to stm32f10x_tim.o(i.TI2_Config) for TI2_Config
    stm32f10x_tim.o(i.TIM_ICInit) refers to stm32f10x_tim.o(i.TIM_SetIC2Prescaler) for TIM_SetIC2Prescaler
    stm32f10x_tim.o(i.TIM_ICInit) refers to stm32f10x_tim.o(i.TI3_Config) for TI3_Config
    stm32f10x_tim.o(i.TIM_ICInit) refers to stm32f10x_tim.o(i.TIM_SetIC3Prescaler) for TIM_SetIC3Prescaler
    stm32f10x_tim.o(i.TIM_ICInit) refers to stm32f10x_tim.o(i.TI4_Config) for TI4_Config
    stm32f10x_tim.o(i.TIM_ICInit) refers to stm32f10x_tim.o(i.TIM_SetIC4Prescaler) for TIM_SetIC4Prescaler
    stm32f10x_tim.o(i.TIM_ITRxExternalClockConfig) refers to stm32f10x_tim.o(i.TIM_SelectInputTrigger) for TIM_SelectInputTrigger
    stm32f10x_tim.o(i.TIM_PWMIConfig) refers to stm32f10x_tim.o(i.TI1_Config) for TI1_Config
    stm32f10x_tim.o(i.TIM_PWMIConfig) refers to stm32f10x_tim.o(i.TIM_SetIC1Prescaler) for TIM_SetIC1Prescaler
    stm32f10x_tim.o(i.TIM_PWMIConfig) refers to stm32f10x_tim.o(i.TI2_Config) for TI2_Config
    stm32f10x_tim.o(i.TIM_PWMIConfig) refers to stm32f10x_tim.o(i.TIM_SetIC2Prescaler) for TIM_SetIC2Prescaler
    stm32f10x_tim.o(i.TIM_TIxExternalClockConfig) refers to stm32f10x_tim.o(i.TI2_Config) for TI2_Config
    stm32f10x_tim.o(i.TIM_TIxExternalClockConfig) refers to stm32f10x_tim.o(i.TI1_Config) for TI1_Config
    stm32f10x_tim.o(i.TIM_TIxExternalClockConfig) refers to stm32f10x_tim.o(i.TIM_SelectInputTrigger) for TIM_SelectInputTrigger
    stm32f10x_usart.o(i.USART_DeInit) refers to stm32f10x_rcc.o(i.RCC_APB2PeriphResetCmd) for RCC_APB2PeriphResetCmd
    stm32f10x_usart.o(i.USART_DeInit) refers to stm32f10x_rcc.o(i.RCC_APB1PeriphResetCmd) for RCC_APB1PeriphResetCmd
    stm32f10x_usart.o(i.USART_Init) refers to stm32f10x_rcc.o(i.RCC_GetClocksFreq) for RCC_GetClocksFreq
    stm32f10x_wwdg.o(i.WWDG_DeInit) refers to stm32f10x_rcc.o(i.RCC_APB1PeriphResetCmd) for RCC_APB1PeriphResetCmd
    system_stm32f10x.o(i.SetSysClock) refers to system_stm32f10x.o(i.SetSysClockTo72) for SetSysClockTo72
    system_stm32f10x.o(i.SystemCoreClockUpdate) refers to system_stm32f10x.o(.data) for SystemCoreClock
    system_stm32f10x.o(i.SystemInit) refers to system_stm32f10x.o(i.SetSysClock) for SetSysClock
    USART_DEBUG.o(i.fgetc) refers to stm32f10x_usart.o(i.USART_GetFlagStatus) for USART_GetFlagStatus
    USART_DEBUG.o(i.fgetc) refers to stm32f10x_usart.o(i.USART_ReceiveData) for USART_ReceiveData
    USART_DEBUG.o(i.fputc) refers to stm32f10x_usart.o(i.USART_SendData) for USART_SendData
    USART_DEBUG.o(i.fputc) refers to stm32f10x_usart.o(i.USART_GetFlagStatus) for USART_GetFlagStatus
    startup_stm32f10x_hd.o(RESET) refers to startup_stm32f10x_hd.o(STACK) for __initial_sp
    startup_stm32f10x_hd.o(RESET) refers to startup_stm32f10x_hd.o(.text) for Reset_Handler
    startup_stm32f10x_hd.o(RESET) refers to stm32f10x_it.o(i.NMI_Handler) for NMI_Handler
    startup_stm32f10x_hd.o(RESET) refers to stm32f10x_it.o(i.HardFault_Handler) for HardFault_Handler
    startup_stm32f10x_hd.o(RESET) refers to stm32f10x_it.o(i.MemManage_Handler) for MemManage_Handler
    startup_stm32f10x_hd.o(RESET) refers to stm32f10x_it.o(i.BusFault_Handler) for BusFault_Handler
    startup_stm32f10x_hd.o(RESET) refers to stm32f10x_it.o(i.UsageFault_Handler) for UsageFault_Handler
    startup_stm32f10x_hd.o(RESET) refers to stm32f10x_it.o(i.SVC_Handler) for SVC_Handler
    startup_stm32f10x_hd.o(RESET) refers to stm32f10x_it.o(i.DebugMon_Handler) for DebugMon_Handler
    startup_stm32f10x_hd.o(RESET) refers to stm32f10x_it.o(i.PendSV_Handler) for PendSV_Handler
    startup_stm32f10x_hd.o(RESET) refers to stm32f10x_it.o(i.SysTick_Handler) for SysTick_Handler
    startup_stm32f10x_hd.o(RESET) refers to stm32f10x_it.o(i.EXTI0_IRQHandler) for EXTI0_IRQHandler
    startup_stm32f10x_hd.o(RESET) refers to stm32f10x_it.o(i.EXTI1_IRQHandler) for EXTI1_IRQHandler
    startup_stm32f10x_hd.o(RESET) refers to stm32f10x_it.o(i.EXTI2_IRQHandler) for EXTI2_IRQHandler
    startup_stm32f10x_hd.o(RESET) refers to stm32f10x_it.o(i.EXTI3_IRQHandler) for EXTI3_IRQHandler
    startup_stm32f10x_hd.o(RESET) refers to stm32f10x_it.o(i.EXTI4_IRQHandler) for EXTI4_IRQHandler
    startup_stm32f10x_hd.o(RESET) refers to stm32f10x_it.o(i.EXTI9_5_IRQHandler) for EXTI9_5_IRQHandler
    startup_stm32f10x_hd.o(RESET) refers to stm32f10x_it.o(i.TIM2_IRQHandler) for TIM2_IRQHandler
    startup_stm32f10x_hd.o(RESET) refers to stm32f10x_it.o(i.TIM3_IRQHandler) for TIM3_IRQHandler
    startup_stm32f10x_hd.o(RESET) refers to stm32f10x_it.o(i.TIM4_IRQHandler) for TIM4_IRQHandler
    startup_stm32f10x_hd.o(RESET) refers to stm32f10x_it.o(i.USART1_IRQHandler) for USART1_IRQHandler
    startup_stm32f10x_hd.o(RESET) refers to stm32f10x_it.o(i.USART2_IRQHandler) for USART2_IRQHandler
    startup_stm32f10x_hd.o(RESET) refers to stm32f10x_it.o(i.USART3_IRQHandler) for USART3_IRQHandler
    startup_stm32f10x_hd.o(RESET) refers to stm32f10x_it.o(i.EXTI15_10_IRQHandler) for EXTI15_10_IRQHandler
    startup_stm32f10x_hd.o(RESET) refers to stm32f10x_it.o(i.TIM5_IRQHandler) for TIM5_IRQHandler
    startup_stm32f10x_hd.o(RESET) refers to stm32f10x_it.o(i.TIM6_IRQHandler) for TIM6_IRQHandler
    startup_stm32f10x_hd.o(RESET) refers to stm32f10x_it.o(i.TIM7_IRQHandler) for TIM7_IRQHandler
    startup_stm32f10x_hd.o(.text) refers to system_stm32f10x.o(i.SystemInit) for SystemInit
    startup_stm32f10x_hd.o(.text) refers to entry.o(.ARM.Collect$$$$00000000) for __main
    LCD_12864_Parallel.o(i._ZN18LCD_12864_Parallel10Check_BusyEv) refers to GPIO.o(i._ZN4GPIO8Set_PortEt) for GPIO::Set_Port(unsigned short)
    LCD_12864_Parallel.o(i._ZN18LCD_12864_Parallel10Check_BusyEv) refers to GPIO.o(i._ZN4GPIO7Set_PinEh) for GPIO::Set_Pin(unsigned char)
    LCD_12864_Parallel.o(i._ZN18LCD_12864_Parallel10Check_BusyEv) refers to GPIO.o(i._ZN4GPIO7IN_MODEEv) for GPIO::IN_MODE()
    LCD_12864_Parallel.o(i._ZN18LCD_12864_Parallel10Check_BusyEv) refers to GPIO.o(i._ZN4GPIO14Get_Input_PortEv) for GPIO::Get_Input_Port()
    LCD_12864_Parallel.o(i._ZN18LCD_12864_Parallel10Check_BusyEv) refers to GPIO.o(i._ZN4GPIO8OUT_MODEEv) for GPIO::OUT_MODE()
    LCD_12864_Parallel.o(i._ZN18LCD_12864_Parallel10Write_DataEh) refers to GPIO.o(i._ZN4GPIO8Set_PortEt) for GPIO::Set_Port(unsigned short)
    LCD_12864_Parallel.o(i._ZN18LCD_12864_Parallel10Write_DataEh) refers to GPIO.o(i._ZN4GPIO7Set_PinEh) for GPIO::Set_Pin(unsigned char)
    LCD_12864_Parallel.o(i._ZN18LCD_12864_Parallel6UpdateE24LCD_12864_Param_Parallel) refers to LCD_12864_Parallel.o(i._ZN18LCD_12864_Parallel9Set_ParamE24LCD_12864_Param_Parallel) for LCD_12864_Parallel::Set_Param(LCD_12864_Param_Parallel)
    LCD_12864_Parallel.o(i._ZN18LCD_12864_Parallel8Pin_InitEv) refers to GPIO.o(i._ZN4GPIOC1EP12GPIO_TypeDeft) for GPIO::GPIO(GPIO_TypeDef*, unsigned short)
    LCD_12864_Parallel.o(i._ZN18LCD_12864_Parallel8Pin_InitEv) refers to GPIO.o(i._ZN4GPIOD1Ev) for GPIO::~GPIO()
    LCD_12864_Parallel.o(i._ZN18LCD_12864_Parallel8Pin_InitEv) refers to GPIO.o(i._ZN4GPIO7IN_MODEEv) for GPIO::IN_MODE()
    LCD_12864_Parallel.o(i._ZN18LCD_12864_Parallel8Pin_InitEv) refers to GPIO.o(i._ZN4GPIO8OUT_MODEEv) for GPIO::OUT_MODE()
    LCD_12864_Parallel.o(i._ZN18LCD_12864_Parallel9Read_DataEv) refers to GPIO.o(i._ZN4GPIO8Set_PortEt) for GPIO::Set_Port(unsigned short)
    LCD_12864_Parallel.o(i._ZN18LCD_12864_Parallel9Read_DataEv) refers to GPIO.o(i._ZN4GPIO7Set_PinEh) for GPIO::Set_Pin(unsigned char)
    LCD_12864_Parallel.o(i._ZN18LCD_12864_Parallel9Read_DataEv) refers to GPIO.o(i._ZN4GPIO7IN_MODEEv) for GPIO::IN_MODE()
    LCD_12864_Parallel.o(i._ZN18LCD_12864_Parallel9Read_DataEv) refers to GPIO.o(i._ZN4GPIO14Get_Input_PortEv) for GPIO::Get_Input_Port()
    LCD_12864_Parallel.o(i._ZN18LCD_12864_Parallel9Set_ParamE24LCD_12864_Param_Parallel) refers to memcpya.o(.text) for __aeabi_memcpy4
    LCD_12864_Parallel.o(i._ZN18LCD_12864_Parallel9Write_CmdEh) refers to GPIO.o(i._ZN4GPIO8Set_PortEt) for GPIO::Set_Port(unsigned short)
    LCD_12864_Parallel.o(i._ZN18LCD_12864_Parallel9Write_CmdEh) refers to GPIO.o(i._ZN4GPIO7Set_PinEh) for GPIO::Set_Pin(unsigned char)
    LCD_12864_Parallel.o(i._ZN18LCD_12864_ParallelC1E24LCD_12864_Param_Parallel) refers to LCD_12864_Parallel.o(i._ZN9LCD_12864C2Ev) for LCD_12864::LCD_12864__sub_object()
    LCD_12864_Parallel.o(i._ZN18LCD_12864_ParallelC1E24LCD_12864_Param_Parallel) refers to GPIO.o(i._ZN4GPIOC1Ev) for GPIO::GPIO()
    LCD_12864_Parallel.o(i._ZN18LCD_12864_ParallelC1E24LCD_12864_Param_Parallel) refers to LCD_12864_Parallel.o(i._ZN18LCD_12864_Parallel9Set_ParamE24LCD_12864_Param_Parallel) for LCD_12864_Parallel::Set_Param(LCD_12864_Param_Parallel)
    LCD_12864_Parallel.o(i._ZN18LCD_12864_ParallelC1E24LCD_12864_Param_Parallel) refers to LCD_12864_Parallel.o(.constdata__ZTV18LCD_12864_Parallel) for vtable for LCD_12864_Parallel
    LCD_12864_Parallel.o(i._ZN18LCD_12864_ParallelC1Ev) refers to LCD_12864_Parallel.o(i._ZN9LCD_12864C2Ev) for LCD_12864::LCD_12864__sub_object()
    LCD_12864_Parallel.o(i._ZN18LCD_12864_ParallelC1Ev) refers to GPIO.o(i._ZN4GPIOC1Ev) for GPIO::GPIO()
    LCD_12864_Parallel.o(i._ZN18LCD_12864_ParallelC1Ev) refers to LCD_12864_Parallel.o(.constdata__ZTV18LCD_12864_Parallel) for vtable for LCD_12864_Parallel
    LCD_12864_Parallel.o(.ARM.exidx) refers to LCD_12864_Parallel.o(i._ZN18LCD_12864_ParallelC1Ev) for i._ZN18LCD_12864_ParallelC1Ev
    LCD_12864_Parallel.o(.ARM.exidx) refers to LCD_12864_Parallel.o(i._ZN18LCD_12864_Parallel9Set_ParamE24LCD_12864_Param_Parallel) for i._ZN18LCD_12864_Parallel9Set_ParamE24LCD_12864_Param_Parallel
    LCD_12864_Parallel.o(.ARM.exidx) refers to LCD_12864_Parallel.o(i._ZN18LCD_12864_ParallelC1E24LCD_12864_Param_Parallel) for i._ZN18LCD_12864_ParallelC1E24LCD_12864_Param_Parallel
    LCD_12864_Parallel.o(.ARM.exidx) refers to LCD_12864_Parallel.o(i._ZN18LCD_12864_Parallel6UpdateE24LCD_12864_Param_Parallel) for i._ZN18LCD_12864_Parallel6UpdateE24LCD_12864_Param_Parallel
    LCD_12864_Parallel.o(.ARM.exidx) refers to LCD_12864_Parallel.o(i._ZN18LCD_12864_Parallel11Clear_DDRAMEv) for i._ZN18LCD_12864_Parallel11Clear_DDRAMEv
    LCD_12864_Parallel.o(.ARM.exidx) refers to LCD_12864_Parallel.o(i._ZN18LCD_12864_Parallel9Send_ByteEh) for i._ZN18LCD_12864_Parallel9Send_ByteEh
    LCD_12864_Parallel.o(.ARM.exidx) refers to LCD_12864_Parallel.o(i._ZN18LCD_12864_Parallel9Write_CmdEh) for i._ZN18LCD_12864_Parallel9Write_CmdEh
    LCD_12864_Parallel.o(.ARM.exidx) refers to LCD_12864_Parallel.o(i._ZN18LCD_12864_Parallel10Write_DataEh) for i._ZN18LCD_12864_Parallel10Write_DataEh
    LCD_12864_Parallel.o(.ARM.exidx) refers to LCD_12864_Parallel.o(i._ZN18LCD_12864_Parallel3PosEhh) for i._ZN18LCD_12864_Parallel3PosEhh
    LCD_12864_Parallel.o(.ARM.exidx) refers to LCD_12864_Parallel.o(i._ZN18LCD_12864_Parallel4InitEv) for i._ZN18LCD_12864_Parallel4InitEv
    LCD_12864_Parallel.o(.ARM.exidx) refers to LCD_12864_Parallel.o(i._ZN18LCD_12864_Parallel8Pin_InitEv) for i._ZN18LCD_12864_Parallel8Pin_InitEv
    LCD_12864_Parallel.o(.ARM.exidx) refers to LCD_12864_Parallel.o(i._ZN18LCD_12864_Parallel10Check_BusyEv) for i._ZN18LCD_12864_Parallel10Check_BusyEv
    LCD_12864_Parallel.o(.ARM.exidx) refers to LCD_12864_Parallel.o(i._ZN18LCD_12864_Parallel9Set_CGRAMEhPh) for i._ZN18LCD_12864_Parallel9Set_CGRAMEhPh
    LCD_12864_Parallel.o(.ARM.exidx) refers to LCD_12864_Parallel.o(i._ZN18LCD_12864_Parallel13Display_CGRAMEhhh) for i._ZN18LCD_12864_Parallel13Display_CGRAMEhhh
    LCD_12864_Parallel.o(.ARM.exidx) refers to LCD_12864_Parallel.o(i._ZN18LCD_12864_Parallel11Show_StringEPhtt) for i._ZN18LCD_12864_Parallel11Show_StringEPhtt
    LCD_12864_Parallel.o(.ARM.exidx) refers to LCD_12864_Parallel.o(i._ZN18LCD_12864_Parallel13Display_ImageEPh) for i._ZN18LCD_12864_Parallel13Display_ImageEPh
    LCD_12864_Parallel.o(.ARM.exidx) refers to LCD_12864_Parallel.o(i._ZN18LCD_12864_Parallel14Draw_RectangleEhhhhh) for i._ZN18LCD_12864_Parallel14Draw_RectangleEhhhhh
    LCD_12864_Parallel.o(.ARM.exidx) refers to LCD_12864_Parallel.o(i._ZN18LCD_12864_Parallel16Draw_Rectangle_1Ehhhhh) for i._ZN18LCD_12864_Parallel16Draw_Rectangle_1Ehhhhh
    LCD_12864_Parallel.o(.ARM.exidx) refers to LCD_12864_Parallel.o(i._ZN18LCD_12864_Parallel10Draw_PointEhhh) for i._ZN18LCD_12864_Parallel10Draw_PointEhhh
    LCD_12864_Parallel.o(.ARM.exidx) refers to LCD_12864_Parallel.o(i._ZN18LCD_12864_Parallel11Clear_GDRAMEv) for i._ZN18LCD_12864_Parallel11Clear_GDRAMEv
    LCD_12864_Parallel.o(.ARM.exidx) refers to LCD_12864_Parallel.o(i._ZN18LCD_12864_Parallel10Read_GDRAMEhh) for i._ZN18LCD_12864_Parallel10Read_GDRAMEhh
    LCD_12864_Parallel.o(.ARM.exidx) refers to LCD_12864_Parallel.o(i._ZN18LCD_12864_Parallel12Set_GDRAMaddEhh) for i._ZN18LCD_12864_Parallel12Set_GDRAMaddEhh
    LCD_12864_Parallel.o(.ARM.exidx) refers to LCD_12864_Parallel.o(i._ZN18LCD_12864_Parallel9Read_DataEv) for i._ZN18LCD_12864_Parallel9Read_DataEv
    LCD_12864_Parallel.o(.ARM.exidx) refers to LCD_12864_Parallel.o(i._ZN18LCD_12864_Parallel12Receive_ByteEv) for i._ZN18LCD_12864_Parallel12Receive_ByteEv
    LCD_12864_Parallel.o(.ARM.exidx) refers to LCD_12864_Parallel.o(i._ZN18LCD_12864_Parallel11Read_StatusEv) for i._ZN18LCD_12864_Parallel11Read_StatusEv
    LCD_12864_Serial.o(i._ZN16LCD_12864_Serial10Write_DataEh) refers to GPIO.o(i._ZN4GPIO7Set_PinEh) for GPIO::Set_Pin(unsigned char)
    LCD_12864_Serial.o(i._ZN16LCD_12864_Serial12Receive_ByteEv) refers to SysTick.o(i._ZN15SysTick_Operate8Delay_usEj) for SysTick_Operate::Delay_us(unsigned)
    LCD_12864_Serial.o(i._ZN16LCD_12864_Serial12Receive_ByteEv) refers to GPIO.o(i._ZN4GPIO7Set_PinEh) for GPIO::Set_Pin(unsigned char)
    LCD_12864_Serial.o(i._ZN16LCD_12864_Serial12Receive_ByteEv) refers to GPIO.o(i._ZN4GPIO13Get_Input_PinEv) for GPIO::Get_Input_Pin()
    LCD_12864_Serial.o(i._ZN16LCD_12864_Serial6UpdateE22LCD_12864_Param_Serial) refers to LCD_12864_Serial.o(i._ZN16LCD_12864_Serial9Set_ParamE22LCD_12864_Param_Serial) for LCD_12864_Serial::Set_Param(LCD_12864_Param_Serial)
    LCD_12864_Serial.o(i._ZN16LCD_12864_Serial8Pin_InitEv) refers to GPIO.o(i._ZN4GPIOC1EP12GPIO_TypeDeft) for GPIO::GPIO(GPIO_TypeDef*, unsigned short)
    LCD_12864_Serial.o(i._ZN16LCD_12864_Serial8Pin_InitEv) refers to GPIO.o(i._ZN4GPIOD1Ev) for GPIO::~GPIO()
    LCD_12864_Serial.o(i._ZN16LCD_12864_Serial8Pin_InitEv) refers to GPIO.o(i._ZN4GPIO7IN_MODEEv) for GPIO::IN_MODE()
    LCD_12864_Serial.o(i._ZN16LCD_12864_Serial8Pin_InitEv) refers to GPIO.o(i._ZN4GPIO8OUT_MODEEv) for GPIO::OUT_MODE()
    LCD_12864_Serial.o(i._ZN16LCD_12864_Serial9Send_ByteEh) refers to GPIO.o(i._ZN4GPIO7Set_PinEh) for GPIO::Set_Pin(unsigned char)
    LCD_12864_Serial.o(i._ZN16LCD_12864_Serial9Send_ByteEh) refers to SysTick.o(i._ZN15SysTick_Operate8Delay_usEj) for SysTick_Operate::Delay_us(unsigned)
    LCD_12864_Serial.o(i._ZN16LCD_12864_Serial9Set_ParamE22LCD_12864_Param_Serial) refers to memcpya.o(.text) for __aeabi_memcpy4
    LCD_12864_Serial.o(i._ZN16LCD_12864_Serial9Write_CmdEh) refers to GPIO.o(i._ZN4GPIO7Set_PinEh) for GPIO::Set_Pin(unsigned char)
    LCD_12864_Serial.o(i._ZN16LCD_12864_SerialC1E22LCD_12864_Param_Serial) refers to LCD_12864_Parallel.o(i._ZN9LCD_12864C2Ev) for LCD_12864::LCD_12864__sub_object()
    LCD_12864_Serial.o(i._ZN16LCD_12864_SerialC1E22LCD_12864_Param_Serial) refers to GPIO.o(i._ZN4GPIOC1Ev) for GPIO::GPIO()
    LCD_12864_Serial.o(i._ZN16LCD_12864_SerialC1E22LCD_12864_Param_Serial) refers to LCD_12864_Serial.o(i._ZN16LCD_12864_Serial9Set_ParamE22LCD_12864_Param_Serial) for LCD_12864_Serial::Set_Param(LCD_12864_Param_Serial)
    LCD_12864_Serial.o(i._ZN16LCD_12864_SerialC1E22LCD_12864_Param_Serial) refers to LCD_12864_Serial.o(.constdata__ZTV16LCD_12864_Serial) for vtable for LCD_12864_Serial
    LCD_12864_Serial.o(i._ZN16LCD_12864_SerialC1Ev) refers to LCD_12864_Parallel.o(i._ZN9LCD_12864C2Ev) for LCD_12864::LCD_12864__sub_object()
    LCD_12864_Serial.o(i._ZN16LCD_12864_SerialC1Ev) refers to GPIO.o(i._ZN4GPIOC1Ev) for GPIO::GPIO()
    LCD_12864_Serial.o(i._ZN16LCD_12864_SerialC1Ev) refers to LCD_12864_Serial.o(.constdata__ZTV16LCD_12864_Serial) for vtable for LCD_12864_Serial
    LCD_12864_Serial.o(.ARM.exidx) refers to LCD_12864_Serial.o(i._ZN16LCD_12864_SerialC1Ev) for i._ZN16LCD_12864_SerialC1Ev
    LCD_12864_Serial.o(.ARM.exidx) refers to LCD_12864_Serial.o(i._ZN16LCD_12864_Serial9Set_ParamE22LCD_12864_Param_Serial) for i._ZN16LCD_12864_Serial9Set_ParamE22LCD_12864_Param_Serial
    LCD_12864_Serial.o(.ARM.exidx) refers to LCD_12864_Serial.o(i._ZN16LCD_12864_SerialC1E22LCD_12864_Param_Serial) for i._ZN16LCD_12864_SerialC1E22LCD_12864_Param_Serial
    LCD_12864_Serial.o(.ARM.exidx) refers to LCD_12864_Serial.o(i._ZN16LCD_12864_Serial6UpdateE22LCD_12864_Param_Serial) for i._ZN16LCD_12864_Serial6UpdateE22LCD_12864_Param_Serial
    LCD_12864_Serial.o(.ARM.exidx) refers to LCD_12864_Serial.o(i._ZN16LCD_12864_Serial11Clear_DDRAMEv) for i._ZN16LCD_12864_Serial11Clear_DDRAMEv
    LCD_12864_Serial.o(.ARM.exidx) refers to LCD_12864_Serial.o(i._ZN16LCD_12864_Serial9Send_ByteEh) for i._ZN16LCD_12864_Serial9Send_ByteEh
    LCD_12864_Serial.o(.ARM.exidx) refers to LCD_12864_Serial.o(i._ZN16LCD_12864_Serial9Write_CmdEh) for i._ZN16LCD_12864_Serial9Write_CmdEh
    LCD_12864_Serial.o(.ARM.exidx) refers to LCD_12864_Serial.o(i._ZN16LCD_12864_Serial10Write_DataEh) for i._ZN16LCD_12864_Serial10Write_DataEh
    LCD_12864_Serial.o(.ARM.exidx) refers to LCD_12864_Serial.o(i._ZN16LCD_12864_Serial3PosEhh) for i._ZN16LCD_12864_Serial3PosEhh
    LCD_12864_Serial.o(.ARM.exidx) refers to LCD_12864_Serial.o(i._ZN16LCD_12864_Serial4InitEv) for i._ZN16LCD_12864_Serial4InitEv
    LCD_12864_Serial.o(.ARM.exidx) refers to LCD_12864_Serial.o(i._ZN16LCD_12864_Serial8Pin_InitEv) for i._ZN16LCD_12864_Serial8Pin_InitEv
    LCD_12864_Serial.o(.ARM.exidx) refers to LCD_12864_Serial.o(i._ZN16LCD_12864_Serial10Check_BusyEv) for i._ZN16LCD_12864_Serial10Check_BusyEv
    LCD_12864_Serial.o(.ARM.exidx) refers to LCD_12864_Serial.o(i._ZN16LCD_12864_Serial9Set_CGRAMEhPh) for i._ZN16LCD_12864_Serial9Set_CGRAMEhPh
    LCD_12864_Serial.o(.ARM.exidx) refers to LCD_12864_Serial.o(i._ZN16LCD_12864_Serial13Display_CGRAMEhhh) for i._ZN16LCD_12864_Serial13Display_CGRAMEhhh
    LCD_12864_Serial.o(.ARM.exidx) refers to LCD_12864_Serial.o(i._ZN16LCD_12864_Serial11Show_StringEPhtt) for i._ZN16LCD_12864_Serial11Show_StringEPhtt
    LCD_12864_Serial.o(.ARM.exidx) refers to LCD_12864_Serial.o(i._ZN16LCD_12864_Serial13Display_ImageEPh) for i._ZN16LCD_12864_Serial13Display_ImageEPh
    LCD_12864_Serial.o(.ARM.exidx) refers to LCD_12864_Serial.o(i._ZN16LCD_12864_Serial14Draw_RectangleEhhhhh) for i._ZN16LCD_12864_Serial14Draw_RectangleEhhhhh
    LCD_12864_Serial.o(.ARM.exidx) refers to LCD_12864_Serial.o(i._ZN16LCD_12864_Serial16Draw_Rectangle_1Ehhhhh) for i._ZN16LCD_12864_Serial16Draw_Rectangle_1Ehhhhh
    LCD_12864_Serial.o(.ARM.exidx) refers to LCD_12864_Serial.o(i._ZN16LCD_12864_Serial10Draw_PointEhhh) for i._ZN16LCD_12864_Serial10Draw_PointEhhh
    LCD_12864_Serial.o(.ARM.exidx) refers to LCD_12864_Serial.o(i._ZN16LCD_12864_Serial11Clear_GDRAMEv) for i._ZN16LCD_12864_Serial11Clear_GDRAMEv
    LCD_12864_Serial.o(.ARM.exidx) refers to LCD_12864_Serial.o(i._ZN16LCD_12864_Serial10Read_GDRAMEhh) for i._ZN16LCD_12864_Serial10Read_GDRAMEhh
    LCD_12864_Serial.o(.ARM.exidx) refers to LCD_12864_Serial.o(i._ZN16LCD_12864_Serial12Set_GDRAMaddEhh) for i._ZN16LCD_12864_Serial12Set_GDRAMaddEhh
    LCD_12864_Serial.o(.ARM.exidx) refers to LCD_12864_Serial.o(i._ZN16LCD_12864_Serial9Read_DataEv) for i._ZN16LCD_12864_Serial9Read_DataEv
    LCD_12864_Serial.o(.ARM.exidx) refers to LCD_12864_Serial.o(i._ZN16LCD_12864_Serial12Receive_ByteEv) for i._ZN16LCD_12864_Serial12Receive_ByteEv
    LCD_12864_Serial.o(.ARM.exidx) refers to LCD_12864_Serial.o(i._ZN16LCD_12864_Serial11Read_StatusEv) for i._ZN16LCD_12864_Serial11Read_StatusEv
    AT24C02.o(i._ZN7AT24C0210Write_ByteEhh) refers to printf3.o(i.__0printf$3) for __2printf
    AT24C02.o(i._ZN7AT24C0210Write_ByteEhh) refers to I2C.o(i._ZN3I2C13GetFlagStatusEj) for I2C::GetFlagStatus(unsigned)
    AT24C02.o(i._ZN7AT24C0210Write_ByteEhh) refers to AT24C02.o(i._ZN7AT24C0218Check_AT24C02_BusyEv) for AT24C02::Check_AT24C02_Busy()
    AT24C02.o(i._ZN7AT24C0210Write_ByteEhh) refers to I2C.o(i._ZN3I2C14Generate_STARTE15FunctionalState) for I2C::Generate_START(FunctionalState)
    AT24C02.o(i._ZN7AT24C0210Write_ByteEhh) refers to I2C.o(i._ZN3I2C11Check_EventE9I2C_Event) for I2C::Check_Event(I2C_Event)
    AT24C02.o(i._ZN7AT24C0210Write_ByteEhh) refers to I2C.o(i._ZN3I2C15Send7bitAddressEhh) for I2C::Send7bitAddress(unsigned char, unsigned char)
    AT24C02.o(i._ZN7AT24C0210Write_ByteEhh) refers to I2C.o(i._ZN3I2C8SendDataEh) for I2C::SendData(unsigned char)
    AT24C02.o(i._ZN7AT24C0210Write_ByteEhh) refers to I2C.o(i._ZN3I2C13Generate_STOPE15FunctionalState) for I2C::Generate_STOP(FunctionalState)
    AT24C02.o(i._ZN7AT24C0210Write_ByteEhh) refers to AT24C02.o(.conststring) for .conststring
    AT24C02.o(i._ZN7AT24C0210Write_PageEhPhh) refers to printf3.o(i.__0printf$3) for __2printf
    AT24C02.o(i._ZN7AT24C0210Write_PageEhPhh) refers to I2C.o(i._ZN3I2C13GetFlagStatusEj) for I2C::GetFlagStatus(unsigned)
    AT24C02.o(i._ZN7AT24C0210Write_PageEhPhh) refers to AT24C02.o(i._ZN7AT24C0218Check_AT24C02_BusyEv) for AT24C02::Check_AT24C02_Busy()
    AT24C02.o(i._ZN7AT24C0210Write_PageEhPhh) refers to I2C.o(i._ZN3I2C14Generate_STARTE15FunctionalState) for I2C::Generate_START(FunctionalState)
    AT24C02.o(i._ZN7AT24C0210Write_PageEhPhh) refers to I2C.o(i._ZN3I2C11Check_EventE9I2C_Event) for I2C::Check_Event(I2C_Event)
    AT24C02.o(i._ZN7AT24C0210Write_PageEhPhh) refers to I2C.o(i._ZN3I2C15Send7bitAddressEhh) for I2C::Send7bitAddress(unsigned char, unsigned char)
    AT24C02.o(i._ZN7AT24C0210Write_PageEhPhh) refers to I2C.o(i._ZN3I2C8SendDataEh) for I2C::SendData(unsigned char)
    AT24C02.o(i._ZN7AT24C0210Write_PageEhPhh) refers to I2C.o(i._ZN3I2C13Generate_STOPE15FunctionalState) for I2C::Generate_STOP(FunctionalState)
    AT24C02.o(i._ZN7AT24C0210Write_PageEhPhh) refers to AT24C02.o(.conststring) for .conststring
    AT24C02.o(i._ZN7AT24C0211Read_BufferEhPhh) refers to printf3.o(i.__0printf$3) for __2printf
    AT24C02.o(i._ZN7AT24C0211Read_BufferEhPhh) refers to I2C.o(i._ZN3I2C13GetFlagStatusEj) for I2C::GetFlagStatus(unsigned)
    AT24C02.o(i._ZN7AT24C0211Read_BufferEhPhh) refers to AT24C02.o(i._ZN7AT24C0218Check_AT24C02_BusyEv) for AT24C02::Check_AT24C02_Busy()
    AT24C02.o(i._ZN7AT24C0211Read_BufferEhPhh) refers to I2C.o(i._ZN3I2C14Generate_STARTE15FunctionalState) for I2C::Generate_START(FunctionalState)
    AT24C02.o(i._ZN7AT24C0211Read_BufferEhPhh) refers to I2C.o(i._ZN3I2C11Check_EventE9I2C_Event) for I2C::Check_Event(I2C_Event)
    AT24C02.o(i._ZN7AT24C0211Read_BufferEhPhh) refers to I2C.o(i._ZN3I2C15Send7bitAddressEhh) for I2C::Send7bitAddress(unsigned char, unsigned char)
    AT24C02.o(i._ZN7AT24C0211Read_BufferEhPhh) refers to I2C.o(i._ZN3I2C8SendDataEh) for I2C::SendData(unsigned char)
    AT24C02.o(i._ZN7AT24C0211Read_BufferEhPhh) refers to I2C.o(i._ZN3I2C17AcknowledgeConfigE15FunctionalState) for I2C::AcknowledgeConfig(FunctionalState)
    AT24C02.o(i._ZN7AT24C0211Read_BufferEhPhh) refers to I2C.o(i._ZN3I2C11ReceiveDataEv) for I2C::ReceiveData()
    AT24C02.o(i._ZN7AT24C0211Read_BufferEhPhh) refers to I2C.o(i._ZN3I2C13Generate_STOPE15FunctionalState) for I2C::Generate_STOP(FunctionalState)
    AT24C02.o(i._ZN7AT24C0211Read_BufferEhPhh) refers to AT24C02.o(.conststring) for .conststring
    AT24C02.o(i._ZN7AT24C0212Write_BufferEhPhh) refers to AT24C02.o(i._ZN7AT24C0210Write_PageEhPhh) for AT24C02::Write_Page(unsigned char, unsigned char*, unsigned char)
    AT24C02.o(i._ZN7AT24C0218Check_AT24C02_BusyEv) refers to I2C.o(i._ZN3I2C9ClearFlagEj) for I2C::ClearFlag(unsigned)
    AT24C02.o(i._ZN7AT24C0218Check_AT24C02_BusyEv) refers to I2C.o(i._ZN3I2C14Generate_STARTE15FunctionalState) for I2C::Generate_START(FunctionalState)
    AT24C02.o(i._ZN7AT24C0218Check_AT24C02_BusyEv) refers to printf3.o(i.__0printf$3) for __2printf
    AT24C02.o(i._ZN7AT24C0218Check_AT24C02_BusyEv) refers to I2C.o(i._ZN3I2C13GetFlagStatusEj) for I2C::GetFlagStatus(unsigned)
    AT24C02.o(i._ZN7AT24C0218Check_AT24C02_BusyEv) refers to I2C.o(i._ZN3I2C15Send7bitAddressEhh) for I2C::Send7bitAddress(unsigned char, unsigned char)
    AT24C02.o(i._ZN7AT24C0218Check_AT24C02_BusyEv) refers to I2C.o(i._ZN3I2C11Check_EventE9I2C_Event) for I2C::Check_Event(I2C_Event)
    AT24C02.o(i._ZN7AT24C0218Check_AT24C02_BusyEv) refers to I2C.o(i._ZN3I2C13Generate_STOPE15FunctionalState) for I2C::Generate_STOP(FunctionalState)
    AT24C02.o(i._ZN7AT24C0218Check_AT24C02_BusyEv) refers to AT24C02.o(.conststring) for .conststring
    AT24C02.o(i._ZN7AT24C024InitEv) refers to I2C.o(i._ZN3I2C4InitEv) for I2C::Init()
    AT24C02.o(i._ZN7AT24C024InitEv) refers to I2C.o(.bss) for I2C_1
    AT24C02.o(i._ZN7AT24C026UpdateE13AT24C02_Param) refers to AT24C02.o(i._ZN7AT24C0218Set_AT24C02x_ParamE13AT24C02_Param) for AT24C02::Set_AT24C02x_Param(AT24C02_Param)
    AT24C02.o(i._ZN7AT24C026UpdateE13AT24C02_Param) refers to AT24C02.o(i._ZN7AT24C024InitEv) for AT24C02::Init()
    AT24C02.o(i._ZN7AT24C02C1E13AT24C02_Param) refers to AT24C02.o(i._ZN7AT24C0218Set_AT24C02x_ParamE13AT24C02_Param) for AT24C02::Set_AT24C02x_Param(AT24C02_Param)
    AT24C02.o(.ARM.exidx) refers to AT24C02.o(i._ZN7AT24C02C1Ev) for i._ZN7AT24C02C1Ev
    AT24C02.o(.ARM.exidx) refers to AT24C02.o(i._ZN7AT24C0218Set_AT24C02x_ParamE13AT24C02_Param) for i._ZN7AT24C0218Set_AT24C02x_ParamE13AT24C02_Param
    AT24C02.o(.ARM.exidx) refers to AT24C02.o(i._ZN7AT24C02C1E13AT24C02_Param) for i._ZN7AT24C02C1E13AT24C02_Param
    AT24C02.o(.ARM.exidx) refers to AT24C02.o(i._ZN7AT24C02D1Ev) for i._ZN7AT24C02D1Ev
    AT24C02.o(.ARM.exidx) refers to AT24C02.o(i._ZN7AT24C024InitEv) for i._ZN7AT24C024InitEv
    AT24C02.o(.ARM.exidx) refers to AT24C02.o(i._ZN7AT24C026UpdateE13AT24C02_Param) for i._ZN7AT24C026UpdateE13AT24C02_Param
    AT24C02.o(.ARM.exidx) refers to AT24C02.o(i._ZN7AT24C0218Check_AT24C02_BusyEv) for i._ZN7AT24C0218Check_AT24C02_BusyEv
    AT24C02.o(.ARM.exidx) refers to AT24C02.o(i._ZN7AT24C0210Write_ByteEhh) for i._ZN7AT24C0210Write_ByteEhh
    AT24C02.o(.ARM.exidx) refers to AT24C02.o(i._ZN7AT24C0210Write_PageEhPhh) for i._ZN7AT24C0210Write_PageEhPhh
    AT24C02.o(.ARM.exidx) refers to AT24C02.o(i._ZN7AT24C0212Write_BufferEhPhh) for i._ZN7AT24C0212Write_BufferEhPhh
    AT24C02.o(.ARM.exidx) refers to AT24C02.o(i._ZN7AT24C0211Read_BufferEhPhh) for i._ZN7AT24C0211Read_BufferEhPhh
    Buzzer.o(i._ZN6Buzzer15BEEP_HZ_CONVERTEj) refers to RCC.o(i._ZN11RCC_Operate20Get_SYSCLK_FrequencyEv) for RCC_Operate::Get_SYSCLK_Frequency()
    Buzzer.o(i._ZN6Buzzer16Systick_Delay_msEj) refers to RCC.o(i._ZN11RCC_Operate20Get_SYSCLK_FrequencyEv) for RCC_Operate::Get_SYSCLK_Frequency()
    Buzzer.o(i._ZN6Buzzer16Systick_Delay_msEj) refers to Buzzer.o(i._Z14SysTick_Configj) for SysTick_Config(unsigned)
    Buzzer.o(i._ZN6Buzzer21Systick_Special_DelayEjj) refers to Buzzer.o(i._Z14SysTick_Configj) for SysTick_Config(unsigned)
    Buzzer.o(i._ZN6Buzzer21Systick_Special_DelayEjj) refers to Buzzer.o(i._ZN6Buzzer3runEv) for Buzzer::run()
    Buzzer.o(i._ZN6Buzzer3runEv) refers to GPIO.o(i._ZN4GPIO14Get_Output_PinEv) for GPIO::Get_Output_Pin()
    Buzzer.o(i._ZN6Buzzer3runEv) refers to GPIO.o(i._ZN4GPIO7Set_PinEh) for GPIO::Set_Pin(unsigned char)
    Buzzer.o(i._ZN6Buzzer4InitEv) refers to GPIO.o(i._ZN4GPIO4InitEv) for GPIO::Init()
    Buzzer.o(i._ZN6Buzzer5MusicEjdh) refers to dfltui.o(.text) for __aeabi_ui2d
    Buzzer.o(i._ZN6Buzzer5MusicEjdh) refers to dmul.o(.text) for __aeabi_dmul
    Buzzer.o(i._ZN6Buzzer5MusicEjdh) refers to ddiv.o(.text) for __aeabi_ddiv
    Buzzer.o(i._ZN6Buzzer5MusicEjdh) refers to dfixui.o(.text) for __aeabi_d2uiz
    Buzzer.o(i._ZN6Buzzer5MusicEjdh) refers to Buzzer.o(i._ZN6Buzzer15BEEP_HZ_CONVERTEj) for Buzzer::BEEP_HZ_CONVERT(unsigned)
    Buzzer.o(i._ZN6Buzzer5MusicEjdh) refers to Buzzer.o(i._ZN6Buzzer21Systick_Special_DelayEjj) for Buzzer::Systick_Special_Delay(unsigned, unsigned)
    Buzzer.o(i._ZN6Buzzer5MusicEjdh) refers to Buzzer.o(i._ZN6Buzzer16Systick_Delay_msEj) for Buzzer::Systick_Delay_ms(unsigned)
    Buzzer.o(i._ZN6BuzzerC1E4GPIO) refers to GPIO.o(i._ZN4GPIOC1Ev) for GPIO::GPIO()
    Buzzer.o(i._ZN6BuzzerC1Ev) refers to GPIO.o(i._ZN4GPIOC1Ev) for GPIO::GPIO()
    Buzzer.o(i._ZN6BuzzerD1Ev) refers to GPIO.o(i._ZN4GPIOD1Ev) for GPIO::~GPIO()
    Buzzer.o(.ARM.exidx) refers to Buzzer.o(i._Z14SysTick_Configj) for i._Z14SysTick_Configj
    Buzzer.o(.ARM.exidx) refers to Buzzer.o(i._ZN6Buzzer3runEv) for i._ZN6Buzzer3runEv
    Buzzer.o(.ARM.exidx) refers to Buzzer.o(i._ZN6Buzzer15BEEP_HZ_CONVERTEj) for i._ZN6Buzzer15BEEP_HZ_CONVERTEj
    Buzzer.o(.ARM.exidx) refers to Buzzer.o(i._ZN6Buzzer21Systick_Special_DelayEjj) for i._ZN6Buzzer21Systick_Special_DelayEjj
    Buzzer.o(.ARM.exidx) refers to Buzzer.o(i._ZN6Buzzer16Systick_Delay_msEj) for i._ZN6Buzzer16Systick_Delay_msEj
    Buzzer.o(.ARM.exidx) refers to Buzzer.o(i._ZN6BuzzerC1Ev) for i._ZN6BuzzerC1Ev
    Buzzer.o(.ARM.exidx) refers to Buzzer.o(i._ZN6BuzzerC1E4GPIO) for i._ZN6BuzzerC1E4GPIO
    Buzzer.o(.ARM.exidx) refers to Buzzer.o(i._ZN6BuzzerD1Ev) for i._ZN6BuzzerD1Ev
    Buzzer.o(.ARM.exidx) refers to Buzzer.o(i._ZN6Buzzer4InitEv) for i._ZN6Buzzer4InitEv
    Buzzer.o(.ARM.exidx) refers to Buzzer.o(i._ZN6Buzzer5MusicEjdh) for i._ZN6Buzzer5MusicEjdh
    GPIO.o(i._ZN4GPIO13Get_Input_PinEv) refers to stm32f10x_gpio.o(i.GPIO_ReadInputDataBit) for GPIO_ReadInputDataBit
    GPIO.o(i._ZN4GPIO14Get_Input_PortEv) refers to stm32f10x_gpio.o(i.GPIO_ReadInputData) for GPIO_ReadInputData
    GPIO.o(i._ZN4GPIO14Get_Output_PinEv) refers to stm32f10x_gpio.o(i.GPIO_ReadOutputDataBit) for GPIO_ReadOutputDataBit
    GPIO.o(i._ZN4GPIO15Get_Output_PortEv) refers to stm32f10x_gpio.o(i.GPIO_ReadOutputData) for GPIO_ReadOutputData
    GPIO.o(i._ZN4GPIO4InitEv) refers to GPIO.o(i._ZN4GPIO5StartEv) for GPIO::Start()
    GPIO.o(i._ZN4GPIO4InitEv) refers to stm32f10x_gpio.o(i.GPIO_Init) for GPIO_Init
    GPIO.o(i._ZN4GPIO5StartEv) refers to RCC.o(i._ZN11RCC_Operate10RCC_ConfigEP12GPIO_TypeDef15FunctionalState) for RCC_Operate::RCC_Config(GPIO_TypeDef*, FunctionalState)
    GPIO.o(i._ZN4GPIO6Pin_OnEv) refers to stm32f10x_gpio.o(i.GPIO_SetBits) for GPIO_SetBits
    GPIO.o(i._ZN4GPIO6ShutUpEv) refers to RCC.o(i._ZN11RCC_Operate10RCC_ConfigEP12GPIO_TypeDef15FunctionalState) for RCC_Operate::RCC_Config(GPIO_TypeDef*, FunctionalState)
    GPIO.o(i._ZN4GPIO6UpdateEP12GPIO_TypeDef16GPIO_InitTypeDef) refers to GPIO.o(i._ZN4GPIO8Set_GPIOEP12GPIO_TypeDef) for GPIO::Set_GPIO(GPIO_TypeDef*)
    GPIO.o(i._ZN4GPIO6UpdateEP12GPIO_TypeDef16GPIO_InitTypeDef) refers to GPIO.o(i._ZN4GPIO21Set_GPIOInitStructureE16GPIO_InitTypeDef) for GPIO::Set_GPIOInitStructure(GPIO_InitTypeDef)
    GPIO.o(i._ZN4GPIO6UpdateEP12GPIO_TypeDef16GPIO_InitTypeDef) refers to GPIO.o(i._ZN4GPIO4InitEv) for GPIO::Init()
    GPIO.o(i._ZN4GPIO7IN_MODEEv) refers to GPIO.o(i._ZN4GPIO4InitEv) for GPIO::Init()
    GPIO.o(i._ZN4GPIO7Pin_OffEv) refers to stm32f10x_gpio.o(i.GPIO_ResetBits) for GPIO_ResetBits
    GPIO.o(i._ZN4GPIO7Set_PinEh) refers to stm32f10x_gpio.o(i.GPIO_WriteBit) for GPIO_WriteBit
    GPIO.o(i._ZN4GPIO8OUT_MODEEv) refers to GPIO.o(i._ZN4GPIO4InitEv) for GPIO::Init()
    GPIO.o(i._ZN4GPIO8Set_PortEt) refers to stm32f10x_gpio.o(i.GPIO_Write) for GPIO_Write
    GPIO.o(i._ZN4GPIOC1EP12GPIO_TypeDef16GPIO_InitTypeDef) refers to GPIO.o(i._ZN4GPIO8Set_GPIOEP12GPIO_TypeDef) for GPIO::Set_GPIO(GPIO_TypeDef*)
    GPIO.o(i._ZN4GPIOC1EP12GPIO_TypeDef16GPIO_InitTypeDef) refers to GPIO.o(i._ZN4GPIO21Set_GPIOInitStructureE16GPIO_InitTypeDef) for GPIO::Set_GPIOInitStructure(GPIO_InitTypeDef)
    GPIO.o(i._ZN4GPIOC1EP12GPIO_TypeDeft) refers to GPIO.o(i._ZN4GPIO8Set_GPIOEP12GPIO_TypeDef) for GPIO::Set_GPIO(GPIO_TypeDef*)
    GPIO.o(i._ZN4GPIOC1EP12GPIO_TypeDeft) refers to GPIO.o(i._ZN4GPIO12Set_GPIO_PinEt) for GPIO::Set_GPIO_Pin(unsigned short)
    GPIO.o(.ARM.exidx) refers to GPIO.o(i._ZN4GPIOC1Ev) for i._ZN4GPIOC1Ev
    GPIO.o(.ARM.exidx) refers to GPIO.o(i._ZN4GPIOD1Ev) for i._ZN4GPIOD1Ev
    GPIO.o(.ARM.exidx) refers to GPIO.o(i._ZN4GPIO12Set_GPIO_PinEt) for i._ZN4GPIO12Set_GPIO_PinEt
    GPIO.o(.ARM.exidx) refers to GPIO.o(i._ZN4GPIO8Set_GPIOEP12GPIO_TypeDef) for i._ZN4GPIO8Set_GPIOEP12GPIO_TypeDef
    GPIO.o(.ARM.exidx) refers to GPIO.o(i._ZN4GPIOC1EP12GPIO_TypeDeft) for i._ZN4GPIOC1EP12GPIO_TypeDeft
    GPIO.o(.ARM.exidx) refers to GPIO.o(i._ZN4GPIO21Set_GPIOInitStructureE16GPIO_InitTypeDef) for i._ZN4GPIO21Set_GPIOInitStructureE16GPIO_InitTypeDef
    GPIO.o(.ARM.exidx) refers to GPIO.o(i._ZN4GPIOC1EP12GPIO_TypeDef16GPIO_InitTypeDef) for i._ZN4GPIOC1EP12GPIO_TypeDef16GPIO_InitTypeDef
    GPIO.o(.ARM.exidx) refers to GPIO.o(i._ZN4GPIO9Get_GPIOxEv) for i._ZN4GPIO9Get_GPIOxEv
    GPIO.o(.ARM.exidx) refers to GPIO.o(i._ZN4GPIO21Get_GPIOInitStructureEv) for i._ZN4GPIO21Get_GPIOInitStructureEv
    GPIO.o(.ARM.exidx) refers to GPIO.o(i._ZN4GPIO5StartEv) for i._ZN4GPIO5StartEv
    GPIO.o(.ARM.exidx) refers to GPIO.o(i._ZN4GPIO4InitEv) for i._ZN4GPIO4InitEv
    GPIO.o(.ARM.exidx) refers to GPIO.o(i._ZN4GPIO8OUT_MODEEv) for i._ZN4GPIO8OUT_MODEEv
    GPIO.o(.ARM.exidx) refers to GPIO.o(i._ZN4GPIO7IN_MODEEv) for i._ZN4GPIO7IN_MODEEv
    GPIO.o(.ARM.exidx) refers to GPIO.o(i._ZN4GPIO6Pin_OnEv) for i._ZN4GPIO6Pin_OnEv
    GPIO.o(.ARM.exidx) refers to GPIO.o(i._ZN4GPIO7Pin_OffEv) for i._ZN4GPIO7Pin_OffEv
    GPIO.o(.ARM.exidx) refers to GPIO.o(i._ZN4GPIO7Set_PinEh) for i._ZN4GPIO7Set_PinEh
    GPIO.o(.ARM.exidx) refers to GPIO.o(i._ZN4GPIO8Set_PortEt) for i._ZN4GPIO8Set_PortEt
    GPIO.o(.ARM.exidx) refers to GPIO.o(i._ZN4GPIO13Get_Input_PinEv) for i._ZN4GPIO13Get_Input_PinEv
    GPIO.o(.ARM.exidx) refers to GPIO.o(i._ZN4GPIO14Get_Output_PinEv) for i._ZN4GPIO14Get_Output_PinEv
    GPIO.o(.ARM.exidx) refers to GPIO.o(i._ZN4GPIO14Get_Input_PortEv) for i._ZN4GPIO14Get_Input_PortEv
    GPIO.o(.ARM.exidx) refers to GPIO.o(i._ZN4GPIO15Get_Output_PortEv) for i._ZN4GPIO15Get_Output_PortEv
    GPIO.o(.ARM.exidx) refers to GPIO.o(i._ZN4GPIO6UpdateEP12GPIO_TypeDef16GPIO_InitTypeDef) for i._ZN4GPIO6UpdateEP12GPIO_TypeDef16GPIO_InitTypeDef
    GPIO.o(.ARM.exidx) refers to GPIO.o(i._ZN4GPIO6ShutUpEv) for i._ZN4GPIO6ShutUpEv
    I2C.o(i._ZN3I2C11Check_EventE9I2C_Event) refers to stm32f10x_i2c.o(i.I2C_CheckEvent) for I2C_CheckEvent
    I2C.o(i._ZN3I2C11ReceiveDataEv) refers to stm32f10x_i2c.o(i.I2C_ReceiveData) for I2C_ReceiveData
    I2C.o(i._ZN3I2C13Generate_STOPE15FunctionalState) refers to stm32f10x_i2c.o(i.I2C_GenerateSTOP) for I2C_GenerateSTOP
    I2C.o(i._ZN3I2C13GetFlagStatusEj) refers to stm32f10x_i2c.o(i.I2C_GetFlagStatus) for I2C_GetFlagStatus
    I2C.o(i._ZN3I2C13Set_I2C_ParamE9I2C_Param) refers to memcpya.o(.text) for __aeabi_memcpy4
    I2C.o(i._ZN3I2C14Generate_STARTE15FunctionalState) refers to stm32f10x_i2c.o(i.I2C_GenerateSTART) for I2C_GenerateSTART
    I2C.o(i._ZN3I2C14Software_ResetE15FunctionalState) refers to stm32f10x_i2c.o(i.I2C_SoftwareResetCmd) for I2C_SoftwareResetCmd
    I2C.o(i._ZN3I2C15Send7bitAddressEhh) refers to stm32f10x_i2c.o(i.I2C_Send7bitAddress) for I2C_Send7bitAddress
    I2C.o(i._ZN3I2C17AcknowledgeConfigE15FunctionalState) refers to stm32f10x_i2c.o(i.I2C_AcknowledgeConfig) for I2C_AcknowledgeConfig
    I2C.o(i._ZN3I2C4InitEv) refers to RCC.o(i._ZN11RCC_Operate10RCC_ConfigEP11I2C_TypeDef15FunctionalState) for RCC_Operate::RCC_Config(I2C_TypeDef*, FunctionalState)
    I2C.o(i._ZN3I2C4InitEv) refers to stm32f10x_i2c.o(i.I2C_DeInit) for I2C_DeInit
    I2C.o(i._ZN3I2C4InitEv) refers to I2C.o(i._ZN3I2C14Software_ResetE15FunctionalState) for I2C::Software_Reset(FunctionalState)
    I2C.o(i._ZN3I2C4InitEv) refers to I2C.o(i._ZN3I2C8Pin_InitEv) for I2C::Pin_Init()
    I2C.o(i._ZN3I2C4InitEv) refers to stm32f10x_i2c.o(i.I2C_Init) for I2C_Init
    I2C.o(i._ZN3I2C4InitEv) refers to NVIC.o(i._ZN12NVIC_Operate4InitEv) for NVIC_Operate::Init()
    I2C.o(i._ZN3I2C4InitEv) refers to stm32f10x_i2c.o(i.I2C_ITConfig) for I2C_ITConfig
    I2C.o(i._ZN3I2C4InitEv) refers to I2C.o(i._ZN3I2C5StartEv) for I2C::Start()
    I2C.o(i._ZN3I2C5StartEv) refers to stm32f10x_i2c.o(i.I2C_Cmd) for I2C_Cmd
    I2C.o(i._ZN3I2C6ShutUpEv) refers to stm32f10x_i2c.o(i.I2C_Cmd) for I2C_Cmd
    I2C.o(i._ZN3I2C6UpdateE9I2C_Param) refers to stm32f10x_i2c.o(i.I2C_DeInit) for I2C_DeInit
    I2C.o(i._ZN3I2C6UpdateE9I2C_Param) refers to memcpya.o(.text) for __aeabi_memcpy4
    I2C.o(i._ZN3I2C6UpdateE9I2C_Param) refers to I2C.o(i._ZN3I2C13Set_I2C_ParamE9I2C_Param) for I2C::Set_I2C_Param(I2C_Param)
    I2C.o(i._ZN3I2C6UpdateE9I2C_Param) refers to I2C.o(i._ZN9I2C_ParamD1Ev) for I2C_Param::~I2C_Param()
    I2C.o(i._ZN3I2C6UpdateE9I2C_Param) refers to I2C.o(i._ZN3I2C4InitEv) for I2C::Init()
    I2C.o(i._ZN3I2C8Pin_InitEv) refers to RCC.o(i._ZN11RCC_Operate10RCC_ConfigEP12AFIO_TypeDef15FunctionalState) for RCC_Operate::RCC_Config(AFIO_TypeDef*, FunctionalState)
    I2C.o(i._ZN3I2C8Pin_InitEv) refers to stm32f10x_gpio.o(i.GPIO_PinRemapConfig) for GPIO_PinRemapConfig
    I2C.o(i._ZN3I2C8Pin_InitEv) refers to new.o(i._Znwj) for operator new(unsigned)
    I2C.o(i._ZN3I2C8Pin_InitEv) refers to GPIO.o(i._ZN4GPIOC1EP12GPIO_TypeDef16GPIO_InitTypeDef) for GPIO::GPIO(GPIO_TypeDef*, GPIO_InitTypeDef)
    I2C.o(i._ZN3I2C8Pin_InitEv) refers to GPIO.o(i._ZN4GPIO7IN_MODEEv) for GPIO::IN_MODE()
    I2C.o(i._ZN3I2C8Pin_InitEv) refers to GPIO.o(i._ZN4GPIO6UpdateEP12GPIO_TypeDef16GPIO_InitTypeDef) for GPIO::Update(GPIO_TypeDef*, GPIO_InitTypeDef)
    I2C.o(i._ZN3I2C8Pin_InitEv) refers to GPIO.o(i._ZN4GPIOD1Ev) for GPIO::~GPIO()
    I2C.o(i._ZN3I2C8Pin_InitEv) refers to delete.o(i._ZdlPv) for operator delete (void*)
    I2C.o(i._ZN3I2C8Pin_InitEv) refers to I2C.o(.data) for I2C1_SCL_Pin_2
    I2C.o(i._ZN3I2C8SendDataEh) refers to stm32f10x_i2c.o(i.I2C_SendData) for I2C_SendData
    I2C.o(i._ZN3I2C9ClearFlagEj) refers to stm32f10x_i2c.o(i.I2C_ClearFlag) for I2C_ClearFlag
    I2C.o(i._ZN3I2CC1E9I2C_Param) refers to I2C.o(i._ZN9I2C_ParamC1Ev) for I2C_Param::I2C_Param()
    I2C.o(i._ZN3I2CC1E9I2C_Param) refers to memcpya.o(.text) for __aeabi_memcpy4
    I2C.o(i._ZN3I2CC1E9I2C_Param) refers to I2C.o(i._ZN3I2C13Set_I2C_ParamE9I2C_Param) for I2C::Set_I2C_Param(I2C_Param)
    I2C.o(i._ZN3I2CC1E9I2C_Param) refers to I2C.o(i._ZN9I2C_ParamD1Ev) for I2C_Param::~I2C_Param()
    I2C.o(i._ZN3I2CC1Ev) refers to I2C.o(i._ZN9I2C_ParamC1Ev) for I2C_Param::I2C_Param()
    I2C.o(i._ZN3I2CD1Ev) refers to I2C.o(i._ZN9I2C_ParamD1Ev) for I2C_Param::~I2C_Param()
    I2C.o(i.__sti___7_I2C_cpp_7d40c850) refers to NVIC.o(i._ZN12NVIC_OperateC1EP16NVIC_InitTypeDef) for NVIC_Operate::NVIC_Operate(NVIC_InitTypeDef*)
    I2C.o(i.__sti___7_I2C_cpp_7d40c850) refers to aeabi_atexit.o(.text) for __aeabi_atexit
    I2C.o(i.__sti___7_I2C_cpp_7d40c850) refers to memcpya.o(.text) for __aeabi_memcpy4
    I2C.o(i.__sti___7_I2C_cpp_7d40c850) refers to I2C.o(i._ZN3I2CC1E9I2C_Param) for I2C::I2C(I2C_Param)
    I2C.o(i.__sti___7_I2C_cpp_7d40c850) refers to I2C.o(i._ZN9I2C_ParamD1Ev) for I2C_Param::~I2C_Param()
    I2C.o(i.__sti___7_I2C_cpp_7d40c850) refers to I2C.o(.data) for I2C1_Param
    I2C.o(i.__sti___7_I2C_cpp_7d40c850) refers to I2C.o(.bss) for I2C_1
    I2C.o(i.__sti___7_I2C_cpp_7d40c850) refers to I2C.o(i._ZN3I2CD1Ev) for I2C::~I2C()
    I2C.o(.ARM.exidx) refers to I2C.o(i._ZN3I2CC1Ev) for i._ZN3I2CC1Ev
    I2C.o(.ARM.exidx) refers to I2C.o(i._ZN3I2C13Set_I2C_ParamE9I2C_Param) for i._ZN3I2C13Set_I2C_ParamE9I2C_Param
    I2C.o(.ARM.exidx) refers to I2C.o(i._ZN3I2CC1E9I2C_Param) for i._ZN3I2CC1E9I2C_Param
    I2C.o(.ARM.exidx) refers to I2C.o(i._ZN3I2CD1Ev) for i._ZN3I2CD1Ev
    I2C.o(.ARM.exidx) refers to I2C.o(i._ZN3I2C8Pin_InitEv) for i._ZN3I2C8Pin_InitEv
    I2C.o(.ARM.exidx) refers to I2C.o(i._ZN3I2C5StartEv) for i._ZN3I2C5StartEv
    I2C.o(.ARM.exidx) refers to I2C.o(i._ZN3I2C14Software_ResetE15FunctionalState) for i._ZN3I2C14Software_ResetE15FunctionalState
    I2C.o(.ARM.exidx) refers to I2C.o(i._ZN3I2C4InitEv) for i._ZN3I2C4InitEv
    I2C.o(.ARM.exidx) refers to I2C.o(i._ZN3I2C6ShutUpEv) for i._ZN3I2C6ShutUpEv
    I2C.o(.ARM.exidx) refers to I2C.o(i._ZN3I2C6UpdateE9I2C_Param) for i._ZN3I2C6UpdateE9I2C_Param
    I2C.o(.ARM.exidx) refers to I2C.o(i._ZN3I2C14Generate_STARTE15FunctionalState) for i._ZN3I2C14Generate_STARTE15FunctionalState
    I2C.o(.ARM.exidx) refers to I2C.o(i._ZN3I2C13Generate_STOPE15FunctionalState) for i._ZN3I2C13Generate_STOPE15FunctionalState
    I2C.o(.ARM.exidx) refers to I2C.o(i._ZN3I2C11Check_EventE9I2C_Event) for i._ZN3I2C11Check_EventE9I2C_Event
    I2C.o(.ARM.exidx) refers to I2C.o(i._ZN3I2C15Send7bitAddressEhh) for i._ZN3I2C15Send7bitAddressEhh
    I2C.o(.ARM.exidx) refers to I2C.o(i._ZN3I2C8SendDataEh) for i._ZN3I2C8SendDataEh
    I2C.o(.ARM.exidx) refers to I2C.o(i._ZN3I2C11ReceiveDataEv) for i._ZN3I2C11ReceiveDataEv
    I2C.o(.ARM.exidx) refers to I2C.o(i._ZN3I2C17AcknowledgeConfigE15FunctionalState) for i._ZN3I2C17AcknowledgeConfigE15FunctionalState
    I2C.o(.ARM.exidx) refers to I2C.o(i._ZN3I2C13GetFlagStatusEj) for i._ZN3I2C13GetFlagStatusEj
    I2C.o(.ARM.exidx) refers to I2C.o(i._ZN3I2C9ClearFlagEj) for i._ZN3I2C9ClearFlagEj
    I2C.o(.ARM.exidx) refers to I2C.o(i.__sti___7_I2C_cpp_7d40c850) for i.__sti___7_I2C_cpp_7d40c850
    I2C.o(.init_array) refers to I2C.o(i.__sti___7_I2C_cpp_7d40c850) for __sti___7_I2C_cpp_7d40c850
    I2C.o(.init_array) refers to cpp_init.o(.text) for __cpp_initialize__aeabi_
    stm32f10x_it.o(i.TIM2_IRQHandler) refers to stm32f10x_tim.o(i.TIM_GetITStatus) for TIM_GetITStatus
    stm32f10x_it.o(i.TIM2_IRQHandler) refers to stm32f10x_tim.o(i.TIM_Cmd) for TIM_Cmd
    stm32f10x_it.o(i.TIM2_IRQHandler) refers to stm32f10x_tim.o(i.TIM_ClearITPendingBit) for TIM_ClearITPendingBit
    stm32f10x_it.o(i.TIM2_IRQHandler) refers to stm32f10x_it.o(.data) for current_time_ms
    stm32f10x_it.o(.ARM.exidx) refers to stm32f10x_it.o(i.NMI_Handler) for i.NMI_Handler
    stm32f10x_it.o(.ARM.exidx) refers to stm32f10x_it.o(i.HardFault_Handler) for i.HardFault_Handler
    stm32f10x_it.o(.ARM.exidx) refers to stm32f10x_it.o(i.MemManage_Handler) for i.MemManage_Handler
    stm32f10x_it.o(.ARM.exidx) refers to stm32f10x_it.o(i.BusFault_Handler) for i.BusFault_Handler
    stm32f10x_it.o(.ARM.exidx) refers to stm32f10x_it.o(i.UsageFault_Handler) for i.UsageFault_Handler
    stm32f10x_it.o(.ARM.exidx) refers to stm32f10x_it.o(i.SVC_Handler) for i.SVC_Handler
    stm32f10x_it.o(.ARM.exidx) refers to stm32f10x_it.o(i.DebugMon_Handler) for i.DebugMon_Handler
    stm32f10x_it.o(.ARM.exidx) refers to stm32f10x_it.o(i.PendSV_Handler) for i.PendSV_Handler
    stm32f10x_it.o(.ARM.exidx) refers to stm32f10x_it.o(i.SysTick_Handler) for i.SysTick_Handler
    stm32f10x_it.o(.ARM.exidx) refers to stm32f10x_it.o(i.EXTI0_IRQHandler) for i.EXTI0_IRQHandler
    stm32f10x_it.o(.ARM.exidx) refers to stm32f10x_it.o(i.EXTI1_IRQHandler) for i.EXTI1_IRQHandler
    stm32f10x_it.o(.ARM.exidx) refers to stm32f10x_it.o(i.EXTI2_IRQHandler) for i.EXTI2_IRQHandler
    stm32f10x_it.o(.ARM.exidx) refers to stm32f10x_it.o(i.EXTI3_IRQHandler) for i.EXTI3_IRQHandler
    stm32f10x_it.o(.ARM.exidx) refers to stm32f10x_it.o(i.EXTI4_IRQHandler) for i.EXTI4_IRQHandler
    stm32f10x_it.o(.ARM.exidx) refers to stm32f10x_it.o(i.EXTI9_5_IRQHandler) for i.EXTI9_5_IRQHandler
    stm32f10x_it.o(.ARM.exidx) refers to stm32f10x_it.o(i.EXTI15_10_IRQHandler) for i.EXTI15_10_IRQHandler
    stm32f10x_it.o(.ARM.exidx) refers to stm32f10x_it.o(i.TIM1_IRQHandler) for i.TIM1_IRQHandler
    stm32f10x_it.o(.ARM.exidx) refers to stm32f10x_it.o(i.TIM2_IRQHandler) for i.TIM2_IRQHandler
    stm32f10x_it.o(.ARM.exidx) refers to stm32f10x_it.o(i.TIM3_IRQHandler) for i.TIM3_IRQHandler
    stm32f10x_it.o(.ARM.exidx) refers to stm32f10x_it.o(i.TIM4_IRQHandler) for i.TIM4_IRQHandler
    stm32f10x_it.o(.ARM.exidx) refers to stm32f10x_it.o(i.TIM5_IRQHandler) for i.TIM5_IRQHandler
    stm32f10x_it.o(.ARM.exidx) refers to stm32f10x_it.o(i.TIM6_IRQHandler) for i.TIM6_IRQHandler
    stm32f10x_it.o(.ARM.exidx) refers to stm32f10x_it.o(i.TIM7_IRQHandler) for i.TIM7_IRQHandler
    stm32f10x_it.o(.ARM.exidx) refers to stm32f10x_it.o(i.TIM8_IRQHandler) for i.TIM8_IRQHandler
    stm32f10x_it.o(.ARM.exidx) refers to stm32f10x_it.o(i.USART1_IRQHandler) for i.USART1_IRQHandler
    stm32f10x_it.o(.ARM.exidx) refers to stm32f10x_it.o(i.USART2_IRQHandler) for i.USART2_IRQHandler
    stm32f10x_it.o(.ARM.exidx) refers to stm32f10x_it.o(i.USART3_IRQHandler) for i.USART3_IRQHandler
    NVIC.o(i._ZN12NVIC_Operate19PriorityGroupConfigEv) refers to misc.o(i.NVIC_PriorityGroupConfig) for NVIC_PriorityGroupConfig
    NVIC.o(i._ZN12NVIC_Operate4InitEv) refers to NVIC.o(i._ZN12NVIC_Operate19PriorityGroupConfigEv) for NVIC_Operate::PriorityGroupConfig()
    NVIC.o(i._ZN12NVIC_Operate4InitEv) refers to misc.o(i.NVIC_Init) for NVIC_Init
    NVIC.o(i._ZN12NVIC_Operate5StartEv) refers to NVIC.o(i._ZN12NVIC_Operate4InitEv) for NVIC_Operate::Init()
    NVIC.o(i._ZN12NVIC_Operate6ShutUpEv) refers to NVIC.o(i._ZN12NVIC_Operate4InitEv) for NVIC_Operate::Init()
    NVIC.o(i._ZN12NVIC_Operate6UpdateEP16NVIC_InitTypeDef) refers to NVIC.o(i._ZN12NVIC_Operate22Set_NVIC_InitStructureEP16NVIC_InitTypeDef) for NVIC_Operate::Set_NVIC_InitStructure(NVIC_InitTypeDef*)
    NVIC.o(i._ZN12NVIC_Operate6UpdateEP16NVIC_InitTypeDef) refers to NVIC.o(i._ZN12NVIC_Operate4InitEv) for NVIC_Operate::Init()
    NVIC.o(i._ZN12NVIC_OperateC1EP16NVIC_InitTypeDef) refers to NVIC.o(i._ZN12NVIC_Operate22Set_NVIC_InitStructureEP16NVIC_InitTypeDef) for NVIC_Operate::Set_NVIC_InitStructure(NVIC_InitTypeDef*)
    NVIC.o(.ARM.exidx) refers to NVIC.o(i._ZN12NVIC_OperateC1Ev) for i._ZN12NVIC_OperateC1Ev
    NVIC.o(.ARM.exidx) refers to NVIC.o(i._ZN12NVIC_OperateD1Ev) for i._ZN12NVIC_OperateD1Ev
    NVIC.o(.ARM.exidx) refers to NVIC.o(i._ZN12NVIC_Operate22Set_NVIC_InitStructureEP16NVIC_InitTypeDef) for i._ZN12NVIC_Operate22Set_NVIC_InitStructureEP16NVIC_InitTypeDef
    NVIC.o(.ARM.exidx) refers to NVIC.o(i._ZN12NVIC_OperateC1EP16NVIC_InitTypeDef) for i._ZN12NVIC_OperateC1EP16NVIC_InitTypeDef
    NVIC.o(.ARM.exidx) refers to NVIC.o(i._ZN12NVIC_Operate19PriorityGroupConfigEv) for i._ZN12NVIC_Operate19PriorityGroupConfigEv
    NVIC.o(.ARM.exidx) refers to NVIC.o(i._ZN12NVIC_Operate4InitEv) for i._ZN12NVIC_Operate4InitEv
    NVIC.o(.ARM.exidx) refers to NVIC.o(i._ZN12NVIC_Operate6UpdateEP16NVIC_InitTypeDef) for i._ZN12NVIC_Operate6UpdateEP16NVIC_InitTypeDef
    NVIC.o(.ARM.exidx) refers to NVIC.o(i._ZN12NVIC_Operate5StartEv) for i._ZN12NVIC_Operate5StartEv
    NVIC.o(.ARM.exidx) refers to NVIC.o(i._ZN12NVIC_Operate6ShutUpEv) for i._ZN12NVIC_Operate6ShutUpEv
    PWM.o(i._ZN3PWM4InitEv) refers to PWM.o(i._ZN3PWM8Pin_InitEv) for PWM::Pin_Init()
    PWM.o(i._ZN3PWM4InitEv) refers to RCC.o(i._ZN11RCC_Operate10RCC_ConfigEP11TIM_TypeDef15FunctionalState) for RCC_Operate::RCC_Config(TIM_TypeDef*, FunctionalState)
    PWM.o(i._ZN3PWM4InitEv) refers to stm32f10x_tim.o(i.TIM_DeInit) for TIM_DeInit
    PWM.o(i._ZN3PWM4InitEv) refers to RCC.o(i._ZN11RCC_Operate20Get_SYSCLK_FrequencyEv) for RCC_Operate::Get_SYSCLK_Frequency()
    PWM.o(i._ZN3PWM4InitEv) refers to dflti.o(.text) for __aeabi_i2d
    PWM.o(i._ZN3PWM4InitEv) refers to dmul.o(.text) for __aeabi_dmul
    PWM.o(i._ZN3PWM4InitEv) refers to dfltui.o(.text) for __aeabi_ui2d
    PWM.o(i._ZN3PWM4InitEv) refers to ddiv.o(.text) for __aeabi_ddiv
    PWM.o(i._ZN3PWM4InitEv) refers to dadd.o(.text) for __aeabi_dsub
    PWM.o(i._ZN3PWM4InitEv) refers to dfixui.o(.text) for __aeabi_d2uiz
    PWM.o(i._ZN3PWM4InitEv) refers to stm32f10x_tim.o(i.TIM_TimeBaseInit) for TIM_TimeBaseInit
    PWM.o(i._ZN3PWM4InitEv) refers to stm32f10x_tim.o(i.TIM_OC1Init) for TIM_OC1Init
    PWM.o(i._ZN3PWM4InitEv) refers to stm32f10x_tim.o(i.TIM_OC2Init) for TIM_OC2Init
    PWM.o(i._ZN3PWM4InitEv) refers to stm32f10x_tim.o(i.TIM_OC3Init) for TIM_OC3Init
    PWM.o(i._ZN3PWM4InitEv) refers to stm32f10x_tim.o(i.TIM_OC4Init) for TIM_OC4Init
    PWM.o(i._ZN3PWM4InitEv) refers to PWM.o(i._ZN3PWM5StartEv) for PWM::Start()
    PWM.o(i._ZN3PWM5StartEv) refers to stm32f10x_tim.o(i.TIM_Cmd) for TIM_Cmd
    PWM.o(i._ZN3PWM6ShutUpEv) refers to stm32f10x_tim.o(i.TIM_Cmd) for TIM_Cmd
    PWM.o(i._ZN3PWM6UpdateE23TIMx_Channelx_Selectiondd) refers to stm32f10x_tim.o(i.TIM_DeInit) for TIM_DeInit
    PWM.o(i._ZN3PWM6UpdateE23TIMx_Channelx_Selectiondd) refers to PWM.o(i._ZN3PWM27Set_TIMx_Channelx_SelectionE23TIMx_Channelx_Selection) for PWM::Set_TIMx_Channelx_Selection(TIMx_Channelx_Selection)
    PWM.o(i._ZN3PWM6UpdateE23TIMx_Channelx_Selectiondd) refers to PWM.o(i._ZN3PWM13Set_DutyRatioEd) for PWM::Set_DutyRatio(double)
    PWM.o(i._ZN3PWM6UpdateE23TIMx_Channelx_Selectiondd) refers to PWM.o(i._ZN3PWM13Set_FrequencyEd) for PWM::Set_Frequency(double)
    PWM.o(i._ZN3PWM6UpdateE23TIMx_Channelx_Selectiondd) refers to PWM.o(i._ZN3PWM4InitEv) for PWM::Init()
    PWM.o(i._ZN3PWM8Pin_InitEv) refers to RCC.o(i._ZN11RCC_Operate10RCC_ConfigEP12AFIO_TypeDef15FunctionalState) for RCC_Operate::RCC_Config(AFIO_TypeDef*, FunctionalState)
    PWM.o(i._ZN3PWM8Pin_InitEv) refers to new.o(i._Znwj) for operator new(unsigned)
    PWM.o(i._ZN3PWM8Pin_InitEv) refers to GPIO.o(i._ZN4GPIOC1EP12GPIO_TypeDef16GPIO_InitTypeDef) for GPIO::GPIO(GPIO_TypeDef*, GPIO_InitTypeDef)
    PWM.o(i._ZN3PWM8Pin_InitEv) refers to GPIO.o(i._ZN4GPIO4InitEv) for GPIO::Init()
    PWM.o(i._ZN3PWM8Pin_InitEv) refers to GPIO.o(i._ZN4GPIOD1Ev) for GPIO::~GPIO()
    PWM.o(i._ZN3PWM8Pin_InitEv) refers to delete.o(i._ZdlPv) for operator delete (void*)
    PWM.o(i._ZN3PWM8Pin_InitEv) refers to PWM.o(.data) for PWM_Pin_8
    PWM.o(i._ZN3PWMC1E23TIMx_Channelx_Selectiondd) refers to PWM.o(i._ZN3PWM27Set_TIMx_Channelx_SelectionE23TIMx_Channelx_Selection) for PWM::Set_TIMx_Channelx_Selection(TIMx_Channelx_Selection)
    PWM.o(i._ZN3PWMC1E23TIMx_Channelx_Selectiondd) refers to PWM.o(i._ZN3PWM13Set_DutyRatioEd) for PWM::Set_DutyRatio(double)
    PWM.o(i._ZN3PWMC1E23TIMx_Channelx_Selectiondd) refers to PWM.o(i._ZN3PWM13Set_FrequencyEd) for PWM::Set_Frequency(double)
    PWM.o(.ARM.exidx) refers to PWM.o(i._ZN3PWMC1Ev) for i._ZN3PWMC1Ev
    PWM.o(.ARM.exidx) refers to PWM.o(i._ZN3PWM13Set_FrequencyEd) for i._ZN3PWM13Set_FrequencyEd
    PWM.o(.ARM.exidx) refers to PWM.o(i._ZN3PWM13Set_DutyRatioEd) for i._ZN3PWM13Set_DutyRatioEd
    PWM.o(.ARM.exidx) refers to PWM.o(i._ZN3PWM27Set_TIMx_Channelx_SelectionE23TIMx_Channelx_Selection) for i._ZN3PWM27Set_TIMx_Channelx_SelectionE23TIMx_Channelx_Selection
    PWM.o(.ARM.exidx) refers to PWM.o(i._ZN3PWMC1E23TIMx_Channelx_Selectiondd) for i._ZN3PWMC1E23TIMx_Channelx_Selectiondd
    PWM.o(.ARM.exidx) refers to PWM.o(i._ZN3PWM8Pin_InitEv) for i._ZN3PWM8Pin_InitEv
    PWM.o(.ARM.exidx) refers to PWM.o(i._ZN3PWM5StartEv) for i._ZN3PWM5StartEv
    PWM.o(.ARM.exidx) refers to PWM.o(i._ZN3PWM4InitEv) for i._ZN3PWM4InitEv
    PWM.o(.ARM.exidx) refers to PWM.o(i._ZN3PWM6ShutUpEv) for i._ZN3PWM6ShutUpEv
    PWM.o(.ARM.exidx) refers to PWM.o(i._ZN3PWM6UpdateE23TIMx_Channelx_Selectiondd) for i._ZN3PWM6UpdateE23TIMx_Channelx_Selectiondd
    PWM.o(.ARM.exidx) refers to PWM.o(i._ZN3PWMD1Ev) for i._ZN3PWMD1Ev
    RCC.o(i._ZN11RCC_Operate10RCC_ConfigEP11ADC_TypeDef15FunctionalState) refers to RCC.o(i._ZN11RCC_Operate16ADCX_Convert_RCCEP11ADC_TypeDef) for RCC_Operate::ADCX_Convert_RCC(ADC_TypeDef*)
    RCC.o(i._ZN11RCC_Operate10RCC_ConfigEP11ADC_TypeDef15FunctionalState) refers to stm32f10x_rcc.o(i.RCC_APB2PeriphClockCmd) for RCC_APB2PeriphClockCmd
    RCC.o(i._ZN11RCC_Operate10RCC_ConfigEP11BKP_TypeDef15FunctionalState) refers to RCC.o(i._ZN11RCC_Operate15BKP_Convert_RCCEP11BKP_TypeDef) for RCC_Operate::BKP_Convert_RCC(BKP_TypeDef*)
    RCC.o(i._ZN11RCC_Operate10RCC_ConfigEP11BKP_TypeDef15FunctionalState) refers to stm32f10x_rcc.o(i.RCC_APB1PeriphClockCmd) for RCC_APB1PeriphClockCmd
    RCC.o(i._ZN11RCC_Operate10RCC_ConfigEP11CAN_TypeDef15FunctionalState) refers to RCC.o(i._ZN11RCC_Operate15CAN_Convert_RCCEP11CAN_TypeDef) for RCC_Operate::CAN_Convert_RCC(CAN_TypeDef*)
    RCC.o(i._ZN11RCC_Operate10RCC_ConfigEP11CAN_TypeDef15FunctionalState) refers to stm32f10x_rcc.o(i.RCC_APB1PeriphClockCmd) for RCC_APB1PeriphClockCmd
    RCC.o(i._ZN11RCC_Operate10RCC_ConfigEP11CRC_TypeDef15FunctionalState) refers to RCC.o(i._ZN11RCC_Operate15CRC_Convert_RCCEP11CRC_TypeDef) for RCC_Operate::CRC_Convert_RCC(CRC_TypeDef*)
    RCC.o(i._ZN11RCC_Operate10RCC_ConfigEP11CRC_TypeDef15FunctionalState) refers to stm32f10x_rcc.o(i.RCC_AHBPeriphClockCmd) for RCC_AHBPeriphClockCmd
    RCC.o(i._ZN11RCC_Operate10RCC_ConfigEP11DAC_TypeDef15FunctionalState) refers to RCC.o(i._ZN11RCC_Operate15DAC_Convert_RCCEP11DAC_TypeDef) for RCC_Operate::DAC_Convert_RCC(DAC_TypeDef*)
    RCC.o(i._ZN11RCC_Operate10RCC_ConfigEP11DAC_TypeDef15FunctionalState) refers to stm32f10x_rcc.o(i.RCC_APB1PeriphClockCmd) for RCC_APB1PeriphClockCmd
    RCC.o(i._ZN11RCC_Operate10RCC_ConfigEP11DMA_TypeDef15FunctionalState) refers to RCC.o(i._ZN11RCC_Operate15DMA_Convert_RCCEP11DMA_TypeDef) for RCC_Operate::DMA_Convert_RCC(DMA_TypeDef*)
    RCC.o(i._ZN11RCC_Operate10RCC_ConfigEP11DMA_TypeDef15FunctionalState) refers to stm32f10x_rcc.o(i.RCC_AHBPeriphClockCmd) for RCC_AHBPeriphClockCmd
    RCC.o(i._ZN11RCC_Operate10RCC_ConfigEP11I2C_TypeDef15FunctionalState) refers to RCC.o(i._ZN11RCC_Operate16I2CX_Convert_RCCEP11I2C_TypeDef) for RCC_Operate::I2CX_Convert_RCC(I2C_TypeDef*)
    RCC.o(i._ZN11RCC_Operate10RCC_ConfigEP11I2C_TypeDef15FunctionalState) refers to stm32f10x_rcc.o(i.RCC_APB1PeriphClockCmd) for RCC_APB1PeriphClockCmd
    RCC.o(i._ZN11RCC_Operate10RCC_ConfigEP11PWR_TypeDef15FunctionalState) refers to RCC.o(i._ZN11RCC_Operate16PWRX_Convert_RCCEP11PWR_TypeDef) for RCC_Operate::PWRX_Convert_RCC(PWR_TypeDef*)
    RCC.o(i._ZN11RCC_Operate10RCC_ConfigEP11PWR_TypeDef15FunctionalState) refers to stm32f10x_rcc.o(i.RCC_APB1PeriphClockCmd) for RCC_APB1PeriphClockCmd
    RCC.o(i._ZN11RCC_Operate10RCC_ConfigEP11SPI_TypeDef15FunctionalState) refers to RCC.o(i._ZN11RCC_Operate16SPIX_Convert_RCCEP11SPI_TypeDef) for RCC_Operate::SPIX_Convert_RCC(SPI_TypeDef*)
    RCC.o(i._ZN11RCC_Operate10RCC_ConfigEP11SPI_TypeDef15FunctionalState) refers to stm32f10x_rcc.o(i.RCC_APB1PeriphClockCmd) for RCC_APB1PeriphClockCmd
    RCC.o(i._ZN11RCC_Operate10RCC_ConfigEP11SPI_TypeDef15FunctionalState) refers to stm32f10x_rcc.o(i.RCC_APB2PeriphClockCmd) for RCC_APB2PeriphClockCmd
    RCC.o(i._ZN11RCC_Operate10RCC_ConfigEP11TIM_TypeDef15FunctionalState) refers to RCC.o(i._ZN11RCC_Operate16TIMX_Convert_RCCEP11TIM_TypeDef) for RCC_Operate::TIMX_Convert_RCC(TIM_TypeDef*)
    RCC.o(i._ZN11RCC_Operate10RCC_ConfigEP11TIM_TypeDef15FunctionalState) refers to stm32f10x_rcc.o(i.RCC_APB1PeriphClockCmd) for RCC_APB1PeriphClockCmd
    RCC.o(i._ZN11RCC_Operate10RCC_ConfigEP11TIM_TypeDef15FunctionalState) refers to stm32f10x_rcc.o(i.RCC_APB2PeriphClockCmd) for RCC_APB2PeriphClockCmd
    RCC.o(i._ZN11RCC_Operate10RCC_ConfigEP11USB_TypeDef15FunctionalState) refers to RCC.o(i._ZN11RCC_Operate16USBX_Convert_RCCEP11USB_TypeDef) for RCC_Operate::USBX_Convert_RCC(USB_TypeDef*)
    RCC.o(i._ZN11RCC_Operate10RCC_ConfigEP11USB_TypeDef15FunctionalState) refers to stm32f10x_rcc.o(i.RCC_APB1PeriphClockCmd) for RCC_APB1PeriphClockCmd
    RCC.o(i._ZN11RCC_Operate10RCC_ConfigEP12AFIO_TypeDef15FunctionalState) refers to RCC.o(i._ZN11RCC_Operate16AFIO_Convert_RCCEP12AFIO_TypeDef) for RCC_Operate::AFIO_Convert_RCC(AFIO_TypeDef*)
    RCC.o(i._ZN11RCC_Operate10RCC_ConfigEP12AFIO_TypeDef15FunctionalState) refers to stm32f10x_rcc.o(i.RCC_APB2PeriphClockCmd) for RCC_APB2PeriphClockCmd
    RCC.o(i._ZN11RCC_Operate10RCC_ConfigEP12GPIO_TypeDef15FunctionalState) refers to RCC.o(i._ZN11RCC_Operate17GPIOX_Convert_RCCEP12GPIO_TypeDef) for RCC_Operate::GPIOX_Convert_RCC(GPIO_TypeDef*)
    RCC.o(i._ZN11RCC_Operate10RCC_ConfigEP12GPIO_TypeDef15FunctionalState) refers to stm32f10x_rcc.o(i.RCC_APB2PeriphClockCmd) for RCC_APB2PeriphClockCmd
    RCC.o(i._ZN11RCC_Operate10RCC_ConfigEP12SDIO_TypeDef15FunctionalState) refers to RCC.o(i._ZN11RCC_Operate17SDIOX_Convert_RCCEP12SDIO_TypeDef) for RCC_Operate::SDIOX_Convert_RCC(SDIO_TypeDef*)
    RCC.o(i._ZN11RCC_Operate10RCC_ConfigEP12SDIO_TypeDef15FunctionalState) refers to stm32f10x_rcc.o(i.RCC_AHBPeriphClockCmd) for RCC_AHBPeriphClockCmd
    RCC.o(i._ZN11RCC_Operate10RCC_ConfigEP12SRAM_TypeDef15FunctionalState) refers to RCC.o(i._ZN11RCC_Operate17SRAMX_Convert_RCCEP12SRAM_TypeDef) for RCC_Operate::SRAMX_Convert_RCC(SRAM_TypeDef*)
    RCC.o(i._ZN11RCC_Operate10RCC_ConfigEP12SRAM_TypeDef15FunctionalState) refers to stm32f10x_rcc.o(i.RCC_AHBPeriphClockCmd) for RCC_AHBPeriphClockCmd
    RCC.o(i._ZN11RCC_Operate10RCC_ConfigEP12WWDG_TypeDef15FunctionalState) refers to RCC.o(i._ZN11RCC_Operate17WWDGX_Convert_RCCEP12WWDG_TypeDef) for RCC_Operate::WWDGX_Convert_RCC(WWDG_TypeDef*)
    RCC.o(i._ZN11RCC_Operate10RCC_ConfigEP12WWDG_TypeDef15FunctionalState) refers to stm32f10x_rcc.o(i.RCC_APB1PeriphClockCmd) for RCC_APB1PeriphClockCmd
    RCC.o(i._ZN11RCC_Operate10RCC_ConfigEP13FLITF_TypeDef15FunctionalState) refers to RCC.o(i._ZN11RCC_Operate17FLITF_Convert_RCCEP13FLITF_TypeDef) for RCC_Operate::FLITF_Convert_RCC(FLITF_TypeDef*)
    RCC.o(i._ZN11RCC_Operate10RCC_ConfigEP13FLITF_TypeDef15FunctionalState) refers to stm32f10x_rcc.o(i.RCC_AHBPeriphClockCmd) for RCC_AHBPeriphClockCmd
    RCC.o(i._ZN11RCC_Operate10RCC_ConfigEP13USART_TypeDef15FunctionalState) refers to RCC.o(i._ZN11RCC_Operate18USARTX_Convert_RCCEP13USART_TypeDef) for RCC_Operate::USARTX_Convert_RCC(USART_TypeDef*)
    RCC.o(i._ZN11RCC_Operate10RCC_ConfigEP13USART_TypeDef15FunctionalState) refers to stm32f10x_rcc.o(i.RCC_APB1PeriphClockCmd) for RCC_APB1PeriphClockCmd
    RCC.o(i._ZN11RCC_Operate10RCC_ConfigEP13USART_TypeDef15FunctionalState) refers to stm32f10x_rcc.o(i.RCC_APB2PeriphClockCmd) for RCC_APB2PeriphClockCmd
    RCC.o(i._ZN11RCC_Operate10RCC_ConfigEP18FSMC_Bank1_TypeDef15FunctionalState) refers to RCC.o(i._ZN11RCC_Operate22FSMC_Bank1_Convert_RCCEP18FSMC_Bank1_TypeDef) for RCC_Operate::FSMC_Bank1_Convert_RCC(FSMC_Bank1_TypeDef*)
    RCC.o(i._ZN11RCC_Operate10RCC_ConfigEP18FSMC_Bank1_TypeDef15FunctionalState) refers to stm32f10x_rcc.o(i.RCC_AHBPeriphClockCmd) for RCC_AHBPeriphClockCmd
    RCC.o(i._ZN11RCC_Operate10RCC_ConfigEP18FSMC_Bank2_TypeDef15FunctionalState) refers to RCC.o(i._ZN11RCC_Operate22FSMC_Bank2_Convert_RCCEP18FSMC_Bank2_TypeDef) for RCC_Operate::FSMC_Bank2_Convert_RCC(FSMC_Bank2_TypeDef*)
    RCC.o(i._ZN11RCC_Operate10RCC_ConfigEP18FSMC_Bank2_TypeDef15FunctionalState) refers to stm32f10x_rcc.o(i.RCC_AHBPeriphClockCmd) for RCC_AHBPeriphClockCmd
    RCC.o(i._ZN11RCC_Operate10RCC_ConfigEP18FSMC_Bank3_TypeDef15FunctionalState) refers to RCC.o(i._ZN11RCC_Operate22FSMC_Bank3_Convert_RCCEP18FSMC_Bank3_TypeDef) for RCC_Operate::FSMC_Bank3_Convert_RCC(FSMC_Bank3_TypeDef*)
    RCC.o(i._ZN11RCC_Operate10RCC_ConfigEP18FSMC_Bank3_TypeDef15FunctionalState) refers to stm32f10x_rcc.o(i.RCC_AHBPeriphClockCmd) for RCC_AHBPeriphClockCmd
    RCC.o(i._ZN11RCC_Operate10RCC_ConfigEP18FSMC_Bank4_TypeDef15FunctionalState) refers to RCC.o(i._ZN11RCC_Operate22FSMC_Bank4_Convert_RCCEP18FSMC_Bank4_TypeDef) for RCC_Operate::FSMC_Bank4_Convert_RCC(FSMC_Bank4_TypeDef*)
    RCC.o(i._ZN11RCC_Operate10RCC_ConfigEP18FSMC_Bank4_TypeDef15FunctionalState) refers to stm32f10x_rcc.o(i.RCC_AHBPeriphClockCmd) for RCC_AHBPeriphClockCmd
    RCC.o(i._ZN11RCC_Operate10RCC_ConfigEP19FSMC_Bank1E_TypeDef15FunctionalState) refers to RCC.o(i._ZN11RCC_Operate23FSMC_Bank1E_Convert_RCCEP19FSMC_Bank1E_TypeDef) for RCC_Operate::FSMC_Bank1E_Convert_RCC(FSMC_Bank1E_TypeDef*)
    RCC.o(i._ZN11RCC_Operate10RCC_ConfigEP19FSMC_Bank1E_TypeDef15FunctionalState) refers to stm32f10x_rcc.o(i.RCC_AHBPeriphClockCmd) for RCC_AHBPeriphClockCmd
    RCC.o(i._ZN11RCC_Operate14Get_ClocksFreqEv) refers to stm32f10x_rcc.o(i.RCC_GetClocksFreq) for RCC_GetClocksFreq
    RCC.o(i._ZN11RCC_Operate14Get_ClocksFreqEv) refers to RCC.o(.bss) for RCC_Clocks
    RCC.o(i._ZN11RCC_Operate15HSE_SetSysClockEj) refers to stm32f10x_rcc.o(i.RCC_DeInit) for RCC_DeInit
    RCC.o(i._ZN11RCC_Operate15HSE_SetSysClockEj) refers to stm32f10x_rcc.o(i.RCC_HSEConfig) for RCC_HSEConfig
    RCC.o(i._ZN11RCC_Operate15HSE_SetSysClockEj) refers to stm32f10x_rcc.o(i.RCC_WaitForHSEStartUp) for RCC_WaitForHSEStartUp
    RCC.o(i._ZN11RCC_Operate15HSE_SetSysClockEj) refers to stm32f10x_flash.o(i.FLASH_PrefetchBufferCmd) for FLASH_PrefetchBufferCmd
    RCC.o(i._ZN11RCC_Operate15HSE_SetSysClockEj) refers to stm32f10x_flash.o(i.FLASH_SetLatency) for FLASH_SetLatency
    RCC.o(i._ZN11RCC_Operate15HSE_SetSysClockEj) refers to stm32f10x_rcc.o(i.RCC_HCLKConfig) for RCC_HCLKConfig
    RCC.o(i._ZN11RCC_Operate15HSE_SetSysClockEj) refers to stm32f10x_rcc.o(i.RCC_PCLK2Config) for RCC_PCLK2Config
    RCC.o(i._ZN11RCC_Operate15HSE_SetSysClockEj) refers to stm32f10x_rcc.o(i.RCC_PCLK1Config) for RCC_PCLK1Config
    RCC.o(i._ZN11RCC_Operate15HSE_SetSysClockEj) refers to stm32f10x_rcc.o(i.RCC_PLLConfig) for RCC_PLLConfig
    RCC.o(i._ZN11RCC_Operate15HSE_SetSysClockEj) refers to stm32f10x_rcc.o(i.RCC_PLLCmd) for RCC_PLLCmd
    RCC.o(i._ZN11RCC_Operate15HSE_SetSysClockEj) refers to stm32f10x_rcc.o(i.RCC_GetFlagStatus) for RCC_GetFlagStatus
    RCC.o(i._ZN11RCC_Operate15HSE_SetSysClockEj) refers to stm32f10x_rcc.o(i.RCC_SYSCLKConfig) for RCC_SYSCLKConfig
    RCC.o(i._ZN11RCC_Operate15HSE_SetSysClockEj) refers to stm32f10x_rcc.o(i.RCC_GetSYSCLKSource) for RCC_GetSYSCLKSource
    RCC.o(i._ZN11RCC_Operate15HSI_SetSysClockEj) refers to stm32f10x_rcc.o(i.RCC_DeInit) for RCC_DeInit
    RCC.o(i._ZN11RCC_Operate15HSI_SetSysClockEj) refers to stm32f10x_rcc.o(i.RCC_HSICmd) for RCC_HSICmd
    RCC.o(i._ZN11RCC_Operate15HSI_SetSysClockEj) refers to stm32f10x_flash.o(i.FLASH_PrefetchBufferCmd) for FLASH_PrefetchBufferCmd
    RCC.o(i._ZN11RCC_Operate15HSI_SetSysClockEj) refers to stm32f10x_flash.o(i.FLASH_SetLatency) for FLASH_SetLatency
    RCC.o(i._ZN11RCC_Operate15HSI_SetSysClockEj) refers to stm32f10x_rcc.o(i.RCC_HCLKConfig) for RCC_HCLKConfig
    RCC.o(i._ZN11RCC_Operate15HSI_SetSysClockEj) refers to stm32f10x_rcc.o(i.RCC_PCLK2Config) for RCC_PCLK2Config
    RCC.o(i._ZN11RCC_Operate15HSI_SetSysClockEj) refers to stm32f10x_rcc.o(i.RCC_PCLK1Config) for RCC_PCLK1Config
    RCC.o(i._ZN11RCC_Operate15HSI_SetSysClockEj) refers to stm32f10x_rcc.o(i.RCC_PLLConfig) for RCC_PLLConfig
    RCC.o(i._ZN11RCC_Operate15HSI_SetSysClockEj) refers to stm32f10x_rcc.o(i.RCC_PLLCmd) for RCC_PLLCmd
    RCC.o(i._ZN11RCC_Operate15HSI_SetSysClockEj) refers to stm32f10x_rcc.o(i.RCC_GetFlagStatus) for RCC_GetFlagStatus
    RCC.o(i._ZN11RCC_Operate15HSI_SetSysClockEj) refers to stm32f10x_rcc.o(i.RCC_SYSCLKConfig) for RCC_SYSCLKConfig
    RCC.o(i._ZN11RCC_Operate15HSI_SetSysClockEj) refers to stm32f10x_rcc.o(i.RCC_GetSYSCLKSource) for RCC_GetSYSCLKSource
    RCC.o(i._ZN11RCC_Operate18Get_HCLK_FrequencyEv) refers to stm32f10x_rcc.o(i.RCC_GetClocksFreq) for RCC_GetClocksFreq
    RCC.o(i._ZN11RCC_Operate18Get_HCLK_FrequencyEv) refers to RCC.o(.bss) for RCC_Clocks
    RCC.o(i._ZN11RCC_Operate19Get_PCLK1_FrequencyEv) refers to stm32f10x_rcc.o(i.RCC_GetClocksFreq) for RCC_GetClocksFreq
    RCC.o(i._ZN11RCC_Operate19Get_PCLK1_FrequencyEv) refers to RCC.o(.bss) for RCC_Clocks
    RCC.o(i._ZN11RCC_Operate19Get_PCLK2_FrequencyEv) refers to stm32f10x_rcc.o(i.RCC_GetClocksFreq) for RCC_GetClocksFreq
    RCC.o(i._ZN11RCC_Operate19Get_PCLK2_FrequencyEv) refers to RCC.o(.bss) for RCC_Clocks
    RCC.o(i._ZN11RCC_Operate20Get_ADCCLK_FrequencyEv) refers to stm32f10x_rcc.o(i.RCC_GetClocksFreq) for RCC_GetClocksFreq
    RCC.o(i._ZN11RCC_Operate20Get_ADCCLK_FrequencyEv) refers to RCC.o(.bss) for RCC_Clocks
    RCC.o(i._ZN11RCC_Operate20Get_SYSCLK_FrequencyEv) refers to stm32f10x_rcc.o(i.RCC_GetClocksFreq) for RCC_GetClocksFreq
    RCC.o(i._ZN11RCC_Operate20Get_SYSCLK_FrequencyEv) refers to RCC.o(.bss) for RCC_Clocks
    RCC.o(.ARM.exidx) refers to RCC.o(i._ZN11RCC_OperateC1Ev) for i._ZN11RCC_OperateC1Ev
    RCC.o(.ARM.exidx) refers to RCC.o(i._ZN11RCC_OperateD1Ev) for i._ZN11RCC_OperateD1Ev
    RCC.o(.ARM.exidx) refers to RCC.o(i._ZN11RCC_Operate14Get_ClocksFreqEv) for i._ZN11RCC_Operate14Get_ClocksFreqEv
    RCC.o(.ARM.exidx) refers to RCC.o(i._ZN11RCC_Operate20Get_SYSCLK_FrequencyEv) for i._ZN11RCC_Operate20Get_SYSCLK_FrequencyEv
    RCC.o(.ARM.exidx) refers to RCC.o(i._ZN11RCC_Operate18Get_HCLK_FrequencyEv) for i._ZN11RCC_Operate18Get_HCLK_FrequencyEv
    RCC.o(.ARM.exidx) refers to RCC.o(i._ZN11RCC_Operate19Get_PCLK1_FrequencyEv) for i._ZN11RCC_Operate19Get_PCLK1_FrequencyEv
    RCC.o(.ARM.exidx) refers to RCC.o(i._ZN11RCC_Operate19Get_PCLK2_FrequencyEv) for i._ZN11RCC_Operate19Get_PCLK2_FrequencyEv
    RCC.o(.ARM.exidx) refers to RCC.o(i._ZN11RCC_Operate20Get_ADCCLK_FrequencyEv) for i._ZN11RCC_Operate20Get_ADCCLK_FrequencyEv
    RCC.o(.ARM.exidx) refers to RCC.o(i._ZN11RCC_Operate15HSE_SetSysClockEj) for i._ZN11RCC_Operate15HSE_SetSysClockEj
    RCC.o(.ARM.exidx) refers to RCC.o(i._ZN11RCC_Operate15HSI_SetSysClockEj) for i._ZN11RCC_Operate15HSI_SetSysClockEj
    RCC.o(.ARM.exidx) refers to RCC.o(i._ZN11RCC_Operate16ADCX_Convert_RCCEP11ADC_TypeDef) for i._ZN11RCC_Operate16ADCX_Convert_RCCEP11ADC_TypeDef
    RCC.o(.ARM.exidx) refers to RCC.o(i._ZN11RCC_Operate10RCC_ConfigEP11ADC_TypeDef15FunctionalState) for i._ZN11RCC_Operate10RCC_ConfigEP11ADC_TypeDef15FunctionalState
    RCC.o(.ARM.exidx) refers to RCC.o(i._ZN11RCC_Operate16AFIO_Convert_RCCEP12AFIO_TypeDef) for i._ZN11RCC_Operate16AFIO_Convert_RCCEP12AFIO_TypeDef
    RCC.o(.ARM.exidx) refers to RCC.o(i._ZN11RCC_Operate10RCC_ConfigEP12AFIO_TypeDef15FunctionalState) for i._ZN11RCC_Operate10RCC_ConfigEP12AFIO_TypeDef15FunctionalState
    RCC.o(.ARM.exidx) refers to RCC.o(i._ZN11RCC_Operate15BKP_Convert_RCCEP11BKP_TypeDef) for i._ZN11RCC_Operate15BKP_Convert_RCCEP11BKP_TypeDef
    RCC.o(.ARM.exidx) refers to RCC.o(i._ZN11RCC_Operate10RCC_ConfigEP11BKP_TypeDef15FunctionalState) for i._ZN11RCC_Operate10RCC_ConfigEP11BKP_TypeDef15FunctionalState
    RCC.o(.ARM.exidx) refers to RCC.o(i._ZN11RCC_Operate15CAN_Convert_RCCEP11CAN_TypeDef) for i._ZN11RCC_Operate15CAN_Convert_RCCEP11CAN_TypeDef
    RCC.o(.ARM.exidx) refers to RCC.o(i._ZN11RCC_Operate10RCC_ConfigEP11CAN_TypeDef15FunctionalState) for i._ZN11RCC_Operate10RCC_ConfigEP11CAN_TypeDef15FunctionalState
    RCC.o(.ARM.exidx) refers to RCC.o(i._ZN11RCC_Operate15CRC_Convert_RCCEP11CRC_TypeDef) for i._ZN11RCC_Operate15CRC_Convert_RCCEP11CRC_TypeDef
    RCC.o(.ARM.exidx) refers to RCC.o(i._ZN11RCC_Operate10RCC_ConfigEP11CRC_TypeDef15FunctionalState) for i._ZN11RCC_Operate10RCC_ConfigEP11CRC_TypeDef15FunctionalState
    RCC.o(.ARM.exidx) refers to RCC.o(i._ZN11RCC_Operate15DAC_Convert_RCCEP11DAC_TypeDef) for i._ZN11RCC_Operate15DAC_Convert_RCCEP11DAC_TypeDef
    RCC.o(.ARM.exidx) refers to RCC.o(i._ZN11RCC_Operate10RCC_ConfigEP11DAC_TypeDef15FunctionalState) for i._ZN11RCC_Operate10RCC_ConfigEP11DAC_TypeDef15FunctionalState
    RCC.o(.ARM.exidx) refers to RCC.o(i._ZN11RCC_Operate15DMA_Convert_RCCEP11DMA_TypeDef) for i._ZN11RCC_Operate15DMA_Convert_RCCEP11DMA_TypeDef
    RCC.o(.ARM.exidx) refers to RCC.o(i._ZN11RCC_Operate10RCC_ConfigEP11DMA_TypeDef15FunctionalState) for i._ZN11RCC_Operate10RCC_ConfigEP11DMA_TypeDef15FunctionalState
    RCC.o(.ARM.exidx) refers to RCC.o(i._ZN11RCC_Operate17FLITF_Convert_RCCEP13FLITF_TypeDef) for i._ZN11RCC_Operate17FLITF_Convert_RCCEP13FLITF_TypeDef
    RCC.o(.ARM.exidx) refers to RCC.o(i._ZN11RCC_Operate10RCC_ConfigEP13FLITF_TypeDef15FunctionalState) for i._ZN11RCC_Operate10RCC_ConfigEP13FLITF_TypeDef15FunctionalState
    RCC.o(.ARM.exidx) refers to RCC.o(i._ZN11RCC_Operate22FSMC_Bank1_Convert_RCCEP18FSMC_Bank1_TypeDef) for i._ZN11RCC_Operate22FSMC_Bank1_Convert_RCCEP18FSMC_Bank1_TypeDef
    RCC.o(.ARM.exidx) refers to RCC.o(i._ZN11RCC_Operate10RCC_ConfigEP18FSMC_Bank1_TypeDef15FunctionalState) for i._ZN11RCC_Operate10RCC_ConfigEP18FSMC_Bank1_TypeDef15FunctionalState
    RCC.o(.ARM.exidx) refers to RCC.o(i._ZN11RCC_Operate22FSMC_Bank2_Convert_RCCEP18FSMC_Bank2_TypeDef) for i._ZN11RCC_Operate22FSMC_Bank2_Convert_RCCEP18FSMC_Bank2_TypeDef
    RCC.o(.ARM.exidx) refers to RCC.o(i._ZN11RCC_Operate10RCC_ConfigEP18FSMC_Bank2_TypeDef15FunctionalState) for i._ZN11RCC_Operate10RCC_ConfigEP18FSMC_Bank2_TypeDef15FunctionalState
    RCC.o(.ARM.exidx) refers to RCC.o(i._ZN11RCC_Operate22FSMC_Bank3_Convert_RCCEP18FSMC_Bank3_TypeDef) for i._ZN11RCC_Operate22FSMC_Bank3_Convert_RCCEP18FSMC_Bank3_TypeDef
    RCC.o(.ARM.exidx) refers to RCC.o(i._ZN11RCC_Operate10RCC_ConfigEP18FSMC_Bank3_TypeDef15FunctionalState) for i._ZN11RCC_Operate10RCC_ConfigEP18FSMC_Bank3_TypeDef15FunctionalState
    RCC.o(.ARM.exidx) refers to RCC.o(i._ZN11RCC_Operate22FSMC_Bank4_Convert_RCCEP18FSMC_Bank4_TypeDef) for i._ZN11RCC_Operate22FSMC_Bank4_Convert_RCCEP18FSMC_Bank4_TypeDef
    RCC.o(.ARM.exidx) refers to RCC.o(i._ZN11RCC_Operate10RCC_ConfigEP18FSMC_Bank4_TypeDef15FunctionalState) for i._ZN11RCC_Operate10RCC_ConfigEP18FSMC_Bank4_TypeDef15FunctionalState
    RCC.o(.ARM.exidx) refers to RCC.o(i._ZN11RCC_Operate23FSMC_Bank1E_Convert_RCCEP19FSMC_Bank1E_TypeDef) for i._ZN11RCC_Operate23FSMC_Bank1E_Convert_RCCEP19FSMC_Bank1E_TypeDef
    RCC.o(.ARM.exidx) refers to RCC.o(i._ZN11RCC_Operate10RCC_ConfigEP19FSMC_Bank1E_TypeDef15FunctionalState) for i._ZN11RCC_Operate10RCC_ConfigEP19FSMC_Bank1E_TypeDef15FunctionalState
    RCC.o(.ARM.exidx) refers to RCC.o(i._ZN11RCC_Operate17GPIOX_Convert_RCCEP12GPIO_TypeDef) for i._ZN11RCC_Operate17GPIOX_Convert_RCCEP12GPIO_TypeDef
    RCC.o(.ARM.exidx) refers to RCC.o(i._ZN11RCC_Operate10RCC_ConfigEP12GPIO_TypeDef15FunctionalState) for i._ZN11RCC_Operate10RCC_ConfigEP12GPIO_TypeDef15FunctionalState
    RCC.o(.ARM.exidx) refers to RCC.o(i._ZN11RCC_Operate16I2CX_Convert_RCCEP11I2C_TypeDef) for i._ZN11RCC_Operate16I2CX_Convert_RCCEP11I2C_TypeDef
    RCC.o(.ARM.exidx) refers to RCC.o(i._ZN11RCC_Operate10RCC_ConfigEP11I2C_TypeDef15FunctionalState) for i._ZN11RCC_Operate10RCC_ConfigEP11I2C_TypeDef15FunctionalState
    RCC.o(.ARM.exidx) refers to RCC.o(i._ZN11RCC_Operate16PWRX_Convert_RCCEP11PWR_TypeDef) for i._ZN11RCC_Operate16PWRX_Convert_RCCEP11PWR_TypeDef
    RCC.o(.ARM.exidx) refers to RCC.o(i._ZN11RCC_Operate10RCC_ConfigEP11PWR_TypeDef15FunctionalState) for i._ZN11RCC_Operate10RCC_ConfigEP11PWR_TypeDef15FunctionalState
    RCC.o(.ARM.exidx) refers to RCC.o(i._ZN11RCC_Operate17SDIOX_Convert_RCCEP12SDIO_TypeDef) for i._ZN11RCC_Operate17SDIOX_Convert_RCCEP12SDIO_TypeDef
    RCC.o(.ARM.exidx) refers to RCC.o(i._ZN11RCC_Operate10RCC_ConfigEP12SDIO_TypeDef15FunctionalState) for i._ZN11RCC_Operate10RCC_ConfigEP12SDIO_TypeDef15FunctionalState
    RCC.o(.ARM.exidx) refers to RCC.o(i._ZN11RCC_Operate16SPIX_Convert_RCCEP11SPI_TypeDef) for i._ZN11RCC_Operate16SPIX_Convert_RCCEP11SPI_TypeDef
    RCC.o(.ARM.exidx) refers to RCC.o(i._ZN11RCC_Operate10RCC_ConfigEP11SPI_TypeDef15FunctionalState) for i._ZN11RCC_Operate10RCC_ConfigEP11SPI_TypeDef15FunctionalState
    RCC.o(.ARM.exidx) refers to RCC.o(i._ZN11RCC_Operate17SRAMX_Convert_RCCEP12SRAM_TypeDef) for i._ZN11RCC_Operate17SRAMX_Convert_RCCEP12SRAM_TypeDef
    RCC.o(.ARM.exidx) refers to RCC.o(i._ZN11RCC_Operate10RCC_ConfigEP12SRAM_TypeDef15FunctionalState) for i._ZN11RCC_Operate10RCC_ConfigEP12SRAM_TypeDef15FunctionalState
    RCC.o(.ARM.exidx) refers to RCC.o(i._ZN11RCC_Operate16TIMX_Convert_RCCEP11TIM_TypeDef) for i._ZN11RCC_Operate16TIMX_Convert_RCCEP11TIM_TypeDef
    RCC.o(.ARM.exidx) refers to RCC.o(i._ZN11RCC_Operate10RCC_ConfigEP11TIM_TypeDef15FunctionalState) for i._ZN11RCC_Operate10RCC_ConfigEP11TIM_TypeDef15FunctionalState
    RCC.o(.ARM.exidx) refers to RCC.o(i._ZN11RCC_Operate18USARTX_Convert_RCCEP13USART_TypeDef) for i._ZN11RCC_Operate18USARTX_Convert_RCCEP13USART_TypeDef
    RCC.o(.ARM.exidx) refers to RCC.o(i._ZN11RCC_Operate10RCC_ConfigEP13USART_TypeDef15FunctionalState) for i._ZN11RCC_Operate10RCC_ConfigEP13USART_TypeDef15FunctionalState
    RCC.o(.ARM.exidx) refers to RCC.o(i._ZN11RCC_Operate16USBX_Convert_RCCEP11USB_TypeDef) for i._ZN11RCC_Operate16USBX_Convert_RCCEP11USB_TypeDef
    RCC.o(.ARM.exidx) refers to RCC.o(i._ZN11RCC_Operate10RCC_ConfigEP11USB_TypeDef15FunctionalState) for i._ZN11RCC_Operate10RCC_ConfigEP11USB_TypeDef15FunctionalState
    RCC.o(.ARM.exidx) refers to RCC.o(i._ZN11RCC_Operate17WWDGX_Convert_RCCEP12WWDG_TypeDef) for i._ZN11RCC_Operate17WWDGX_Convert_RCCEP12WWDG_TypeDef
    RCC.o(.ARM.exidx) refers to RCC.o(i._ZN11RCC_Operate10RCC_ConfigEP12WWDG_TypeDef15FunctionalState) for i._ZN11RCC_Operate10RCC_ConfigEP12WWDG_TypeDef15FunctionalState
    Servo.o(i._ZN5Servo18Angle_to_DutyRatioEdd) refers to cdcmple.o(.text) for __aeabi_cdcmple
    Servo.o(i._ZN5Servo18Angle_to_DutyRatioEdd) refers to dadd.o(.text) for __aeabi_dadd
    Servo.o(i._ZN5Servo18Angle_to_DutyRatioEdd) refers to ddiv.o(.text) for __aeabi_ddiv
    Servo.o(i._ZN5Servo18Angle_to_DutyRatioEdd) refers to dfixi.o(.text) for __aeabi_d2iz
    Servo.o(i._ZN5Servo18Angle_to_DutyRatioEdd) refers to dflti.o(.text) for __aeabi_i2d
    Servo.o(i._ZN5Servo18Angle_to_DutyRatioEdd) refers to dmul.o(.text) for __aeabi_dmul
    Servo.o(i._ZN5Servo4InitEv) refers to PWM.o(i._ZN3PWM4InitEv) for PWM::Init()
    Servo.o(i._ZN5Servo6UpdateE23TIMx_Channelx_Selectiondd) refers to PWM.o(i._ZN3PWM27Set_TIMx_Channelx_SelectionE23TIMx_Channelx_Selection) for PWM::Set_TIMx_Channelx_Selection(TIMx_Channelx_Selection)
    Servo.o(i._ZN5Servo6UpdateE23TIMx_Channelx_Selectiondd) refers to PWM.o(i._ZN3PWM13Set_FrequencyEd) for PWM::Set_Frequency(double)
    Servo.o(i._ZN5Servo6UpdateE23TIMx_Channelx_Selectiondd) refers to Servo.o(i._ZN5Servo18Angle_to_DutyRatioEdd) for Servo::Angle_to_DutyRatio(double, double)
    Servo.o(i._ZN5Servo6UpdateE23TIMx_Channelx_Selectiondd) refers to PWM.o(i._ZN3PWM13Set_DutyRatioEd) for PWM::Set_DutyRatio(double)
    Servo.o(i._ZN5Servo6UpdateE23TIMx_Channelx_Selectiondd) refers to Servo.o(i._ZN5Servo4InitEv) for Servo::Init()
    Servo.o(i._ZN5ServoC1E23TIMx_Channelx_Selectiondd) refers to PWM.o(i._ZN3PWMC1Ev) for PWM::PWM()
    Servo.o(i._ZN5ServoC1E23TIMx_Channelx_Selectiondd) refers to PWM.o(i._ZN3PWM13Set_FrequencyEd) for PWM::Set_Frequency(double)
    Servo.o(i._ZN5ServoC1E23TIMx_Channelx_Selectiondd) refers to Servo.o(i._ZN5Servo18Angle_to_DutyRatioEdd) for Servo::Angle_to_DutyRatio(double, double)
    Servo.o(i._ZN5ServoC1E23TIMx_Channelx_Selectiondd) refers to PWM.o(i._ZN3PWM13Set_DutyRatioEd) for PWM::Set_DutyRatio(double)
    Servo.o(i._ZN5ServoC1E23TIMx_Channelx_Selectiondd) refers to PWM.o(i._ZN3PWM27Set_TIMx_Channelx_SelectionE23TIMx_Channelx_Selection) for PWM::Set_TIMx_Channelx_Selection(TIMx_Channelx_Selection)
    Servo.o(i._ZN5ServoC1Ev) refers to PWM.o(i._ZN3PWMC1Ev) for PWM::PWM()
    Servo.o(i._ZN5ServoD1Ev) refers to PWM.o(i._ZN3PWMD1Ev) for PWM::~PWM()
    Servo.o(.ARM.exidx) refers to Servo.o(i._ZN5ServoD1Ev) for i._ZN5ServoD1Ev
    Servo.o(.ARM.exidx) refers to Servo.o(i._ZN5ServoC1Ev) for i._ZN5ServoC1Ev
    Servo.o(.ARM.exidx) refers to Servo.o(i._ZN5Servo18Angle_to_DutyRatioEdd) for i._ZN5Servo18Angle_to_DutyRatioEdd
    Servo.o(.ARM.exidx) refers to Servo.o(i._ZN5ServoC1E23TIMx_Channelx_Selectiondd) for i._ZN5ServoC1E23TIMx_Channelx_Selectiondd
    Servo.o(.ARM.exidx) refers to Servo.o(i._ZN5Servo4InitEv) for i._ZN5Servo4InitEv
    Servo.o(.ARM.exidx) refers to Servo.o(i._ZN5Servo6UpdateE23TIMx_Channelx_Selectiondd) for i._ZN5Servo6UpdateE23TIMx_Channelx_Selectiondd
    SysTick.o(i._ZN15SysTick_Operate5DelayEjj) refers to SysTick.o(i._Z14SysTick_Configj) for SysTick_Config(unsigned)
    SysTick.o(i._ZN15SysTick_Operate8Delay_msEj) refers to RCC.o(i._ZN11RCC_Operate20Get_SYSCLK_FrequencyEv) for RCC_Operate::Get_SYSCLK_Frequency()
    SysTick.o(i._ZN15SysTick_Operate8Delay_msEj) refers to SysTick.o(i._Z14SysTick_Configj) for SysTick_Config(unsigned)
    SysTick.o(i._ZN15SysTick_Operate8Delay_usEj) refers to RCC.o(i._ZN11RCC_Operate20Get_SYSCLK_FrequencyEv) for RCC_Operate::Get_SYSCLK_Frequency()
    SysTick.o(i._ZN15SysTick_Operate8Delay_usEj) refers to SysTick.o(i._Z14SysTick_Configj) for SysTick_Config(unsigned)
    SysTick.o(.ARM.exidx) refers to SysTick.o(i._Z14SysTick_Configj) for i._Z14SysTick_Configj
    SysTick.o(.ARM.exidx) refers to SysTick.o(i._ZN15SysTick_OperateC1Ev) for i._ZN15SysTick_OperateC1Ev
    SysTick.o(.ARM.exidx) refers to SysTick.o(i._ZN15SysTick_OperateD1Ev) for i._ZN15SysTick_OperateD1Ev
    SysTick.o(.ARM.exidx) refers to SysTick.o(i._ZN15SysTick_Operate8Delay_msEj) for i._ZN15SysTick_Operate8Delay_msEj
    SysTick.o(.ARM.exidx) refers to SysTick.o(i._ZN15SysTick_Operate8Delay_usEj) for i._ZN15SysTick_Operate8Delay_usEj
    SysTick.o(.ARM.exidx) refers to SysTick.o(i._ZN15SysTick_Operate5DelayEjj) for i._ZN15SysTick_Operate5DelayEjj
    TIM.o(i._ZN3TIM13Set_TIM_ParmaE9TIM_Parma) refers to memcpya.o(.text) for __aeabi_memcpy4
    TIM.o(i._ZN3TIM14Delay_CompleteEv) refers to stm32f10x_it.o(.data) for current_time_ms
    TIM.o(i._ZN3TIM4InitEv) refers to RCC.o(i._ZN11RCC_Operate10RCC_ConfigEP11TIM_TypeDef15FunctionalState) for RCC_Operate::RCC_Config(TIM_TypeDef*, FunctionalState)
    TIM.o(i._ZN3TIM4InitEv) refers to stm32f10x_tim.o(i.TIM_DeInit) for TIM_DeInit
    TIM.o(i._ZN3TIM4InitEv) refers to TIM.o(i._ZN3TIM9Base_InitEv) for TIM::Base_Init()
    TIM.o(i._ZN3TIM4InitEv) refers to TIM.o(i._ZN3TIM7OC_InitEv) for TIM::OC_Init()
    TIM.o(i._ZN3TIM4InitEv) refers to stm32f10x_tim.o(i.TIM_ClearFlag) for TIM_ClearFlag
    TIM.o(i._ZN3TIM4InitEv) refers to stm32f10x_tim.o(i.TIM_ITConfig) for TIM_ITConfig
    TIM.o(i._ZN3TIM4InitEv) refers to NVIC.o(i._ZN12NVIC_Operate4InitEv) for NVIC_Operate::Init()
    TIM.o(i._ZN3TIM4InitEv) refers to TIM.o(i._ZN3TIM5StartEv) for TIM::Start()
    TIM.o(i._ZN3TIM5StartEv) refers to stm32f10x_tim.o(i.TIM_Cmd) for TIM_Cmd
    TIM.o(i._ZN3TIM6ShutupEv) refers to stm32f10x_tim.o(i.TIM_Cmd) for TIM_Cmd
    TIM.o(i._ZN3TIM6UpdateE9TIM_Parma) refers to stm32f10x_tim.o(i.TIM_DeInit) for TIM_DeInit
    TIM.o(i._ZN3TIM6UpdateE9TIM_Parma) refers to memcpya.o(.text) for __aeabi_memcpy4
    TIM.o(i._ZN3TIM6UpdateE9TIM_Parma) refers to TIM.o(i._ZN3TIM13Set_TIM_ParmaE9TIM_Parma) for TIM::Set_TIM_Parma(TIM_Parma)
    TIM.o(i._ZN3TIM6UpdateE9TIM_Parma) refers to TIM.o(i._ZN9TIM_ParmaD1Ev) for TIM_Parma::~TIM_Parma()
    TIM.o(i._ZN3TIM6UpdateE9TIM_Parma) refers to TIM.o(i._ZN3TIM4InitEv) for TIM::Init()
    TIM.o(i._ZN3TIM7OC_InitEv) refers to TIM.o(i._ZN3TIM8Pin_InitEv) for TIM::Pin_Init()
    TIM.o(i._ZN3TIM7OC_InitEv) refers to stm32f10x_tim.o(i.TIM_OC1Init) for TIM_OC1Init
    TIM.o(i._ZN3TIM7OC_InitEv) refers to stm32f10x_tim.o(i.TIM_OC2Init) for TIM_OC2Init
    TIM.o(i._ZN3TIM7OC_InitEv) refers to stm32f10x_tim.o(i.TIM_OC3Init) for TIM_OC3Init
    TIM.o(i._ZN3TIM7OC_InitEv) refers to stm32f10x_tim.o(i.TIM_OC4Init) for TIM_OC4Init
    TIM.o(i._ZN3TIM8Delay_msEj) refers to RCC.o(i._ZN11RCC_Operate10RCC_ConfigEP11TIM_TypeDef15FunctionalState) for RCC_Operate::RCC_Config(TIM_TypeDef*, FunctionalState)
    TIM.o(i._ZN3TIM8Delay_msEj) refers to stm32f10x_tim.o(i.TIM_DeInit) for TIM_DeInit
    TIM.o(i._ZN3TIM8Delay_msEj) refers to RCC.o(i._ZN11RCC_Operate20Get_SYSCLK_FrequencyEv) for RCC_Operate::Get_SYSCLK_Frequency()
    TIM.o(i._ZN3TIM8Delay_msEj) refers to stm32f10x_tim.o(i.TIM_TimeBaseInit) for TIM_TimeBaseInit
    TIM.o(i._ZN3TIM8Delay_msEj) refers to stm32f10x_tim.o(i.TIM_ClearFlag) for TIM_ClearFlag
    TIM.o(i._ZN3TIM8Delay_msEj) refers to stm32f10x_tim.o(i.TIM_ITConfig) for TIM_ITConfig
    TIM.o(i._ZN3TIM8Delay_msEj) refers to NVIC.o(i._ZN12NVIC_OperateC1EP16NVIC_InitTypeDef) for NVIC_Operate::NVIC_Operate(NVIC_InitTypeDef*)
    TIM.o(i._ZN3TIM8Delay_msEj) refers to NVIC.o(i._ZN12NVIC_Operate4InitEv) for NVIC_Operate::Init()
    TIM.o(i._ZN3TIM8Delay_msEj) refers to stm32f10x_tim.o(i.TIM_Cmd) for TIM_Cmd
    TIM.o(i._ZN3TIM8Delay_msEj) refers to NVIC.o(i._ZN12NVIC_OperateD1Ev) for NVIC_Operate::~NVIC_Operate()
    TIM.o(i._ZN3TIM8Delay_msEj) refers to TIM.o(.constdata) for .constdata
    TIM.o(i._ZN3TIM8Delay_msEj) refers to stm32f10x_it.o(.data) for time_ms
    TIM.o(i._ZN3TIM8Pin_InitEv) refers to GPIO.o(i._ZN4GPIOC1EP12GPIO_TypeDef16GPIO_InitTypeDef) for GPIO::GPIO(GPIO_TypeDef*, GPIO_InitTypeDef)
    TIM.o(i._ZN3TIM8Pin_InitEv) refers to GPIO.o(i._ZN4GPIO4InitEv) for GPIO::Init()
    TIM.o(i._ZN3TIM8Pin_InitEv) refers to GPIO.o(i._ZN4GPIOD1Ev) for GPIO::~GPIO()
    TIM.o(i._ZN3TIM8Pin_InitEv) refers to TIM.o(.constdata) for .constdata
    TIM.o(i._ZN3TIM9Base_InitEv) refers to stm32f10x_tim.o(i.TIM_TimeBaseInit) for TIM_TimeBaseInit
    TIM.o(i._ZN3TIMC1E9TIM_Parma) refers to TIM.o(i._ZN9TIM_ParmaC1Ev) for TIM_Parma::TIM_Parma()
    TIM.o(i._ZN3TIMC1E9TIM_Parma) refers to memcpya.o(.text) for __aeabi_memcpy4
    TIM.o(i._ZN3TIMC1E9TIM_Parma) refers to TIM.o(i._ZN3TIM13Set_TIM_ParmaE9TIM_Parma) for TIM::Set_TIM_Parma(TIM_Parma)
    TIM.o(i._ZN3TIMC1E9TIM_Parma) refers to TIM.o(i._ZN9TIM_ParmaD1Ev) for TIM_Parma::~TIM_Parma()
    TIM.o(i._ZN3TIMC1Ev) refers to TIM.o(i._ZN9TIM_ParmaC1Ev) for TIM_Parma::TIM_Parma()
    TIM.o(i._ZN3TIMD1Ev) refers to TIM.o(i._ZN9TIM_ParmaD1Ev) for TIM_Parma::~TIM_Parma()
    TIM.o(i.__sti___7_TIM_cpp_27c83929) refers to RCC.o(i._ZN11RCC_Operate20Get_SYSCLK_FrequencyEv) for RCC_Operate::Get_SYSCLK_Frequency()
    TIM.o(i.__sti___7_TIM_cpp_27c83929) refers to NVIC.o(i._ZN12NVIC_OperateC1EP16NVIC_InitTypeDef) for NVIC_Operate::NVIC_Operate(NVIC_InitTypeDef*)
    TIM.o(i.__sti___7_TIM_cpp_27c83929) refers to aeabi_atexit.o(.text) for __aeabi_atexit
    TIM.o(i.__sti___7_TIM_cpp_27c83929) refers to memcpya.o(.text) for __aeabi_memcpy
    TIM.o(i.__sti___7_TIM_cpp_27c83929) refers to TIM.o(i._ZN3TIMC1E9TIM_Parma) for TIM::TIM(TIM_Parma)
    TIM.o(i.__sti___7_TIM_cpp_27c83929) refers to TIM.o(i._ZN9TIM_ParmaD1Ev) for TIM_Parma::~TIM_Parma()
    TIM.o(i.__sti___7_TIM_cpp_27c83929) refers to TIM.o(.data) for TIM2_TimeBaseStructure
    TIM.o(i.__sti___7_TIM_cpp_27c83929) refers to NVIC.o(i._ZN12NVIC_OperateD1Ev) for NVIC_Operate::~NVIC_Operate()
    TIM.o(i.__sti___7_TIM_cpp_27c83929) refers to TIM.o(.bss) for TIM_2
    TIM.o(i.__sti___7_TIM_cpp_27c83929) refers to TIM.o(i._ZN3TIMD1Ev) for TIM::~TIM()
    TIM.o(.ARM.exidx) refers to TIM.o(i._ZN3TIMC1Ev) for i._ZN3TIMC1Ev
    TIM.o(.ARM.exidx) refers to TIM.o(i._ZN3TIMD1Ev) for i._ZN3TIMD1Ev
    TIM.o(.ARM.exidx) refers to TIM.o(i._ZN3TIM13Set_TIM_ParmaE9TIM_Parma) for i._ZN3TIM13Set_TIM_ParmaE9TIM_Parma
    TIM.o(.ARM.exidx) refers to TIM.o(i._ZN3TIMC1E9TIM_Parma) for i._ZN3TIMC1E9TIM_Parma
    TIM.o(.ARM.exidx) refers to TIM.o(i._ZN3TIM8Delay_msEj) for i._ZN3TIM8Delay_msEj
    TIM.o(.ARM.exidx) refers to TIM.o(i._ZN3TIM14Delay_CompleteEv) for i._ZN3TIM14Delay_CompleteEv
    TIM.o(.ARM.exidx) refers to TIM.o(i._ZN3TIM5StartEv) for i._ZN3TIM5StartEv
    TIM.o(.ARM.exidx) refers to TIM.o(i._ZN3TIM8Pin_InitEv) for i._ZN3TIM8Pin_InitEv
    TIM.o(.ARM.exidx) refers to TIM.o(i._ZN3TIM7OC_InitEv) for i._ZN3TIM7OC_InitEv
    TIM.o(.ARM.exidx) refers to TIM.o(i._ZN3TIM9Base_InitEv) for i._ZN3TIM9Base_InitEv
    TIM.o(.ARM.exidx) refers to TIM.o(i._ZN3TIM4InitEv) for i._ZN3TIM4InitEv
    TIM.o(.ARM.exidx) refers to TIM.o(i._ZN3TIM6UpdateE9TIM_Parma) for i._ZN3TIM6UpdateE9TIM_Parma
    TIM.o(.ARM.exidx) refers to TIM.o(i._ZN3TIM6ShutupEv) for i._ZN3TIM6ShutupEv
    TIM.o(.ARM.exidx) refers to TIM.o(i.__sti___7_TIM_cpp_27c83929) for i.__sti___7_TIM_cpp_27c83929
    TIM.o(.init_array) refers to TIM.o(i.__sti___7_TIM_cpp_27c83929) for __sti___7_TIM_cpp_27c83929
    TIM.o(.init_array) refers to cpp_init.o(.text) for __cpp_initialize__aeabi_
    USART.o(i._ZN5USART11Send_StringEPh) refers to USART.o(i._ZN5USART9Send_ByteEh) for USART::Send_Byte(unsigned char)
    USART.o(i._ZN5USART12Receive_ByteEv) refers to stm32f10x_usart.o(i.USART_ReceiveData) for USART_ReceiveData
    USART.o(i._ZN5USART15Set_USART_ParamE11USART_Param) refers to memcpya.o(.text) for __aeabi_memcpy4
    USART.o(i._ZN5USART4InitEv) refers to RCC.o(i._ZN11RCC_Operate10RCC_ConfigEP13USART_TypeDef15FunctionalState) for RCC_Operate::RCC_Config(USART_TypeDef*, FunctionalState)
    USART.o(i._ZN5USART4InitEv) refers to stm32f10x_usart.o(i.USART_DeInit) for USART_DeInit
    USART.o(i._ZN5USART4InitEv) refers to USART.o(i._ZN5USART8Pin_InitEv) for USART::Pin_Init()
    USART.o(i._ZN5USART4InitEv) refers to stm32f10x_usart.o(i.USART_Init) for USART_Init
    USART.o(i._ZN5USART4InitEv) refers to NVIC.o(i._ZN12NVIC_Operate4InitEv) for NVIC_Operate::Init()
    USART.o(i._ZN5USART4InitEv) refers to stm32f10x_usart.o(i.USART_ITConfig) for USART_ITConfig
    USART.o(i._ZN5USART4InitEv) refers to USART.o(i._ZN5USART5StartEv) for USART::Start()
    USART.o(i._ZN5USART5StartEv) refers to stm32f10x_usart.o(i.USART_Cmd) for USART_Cmd
    USART.o(i._ZN5USART6ShutUpEv) refers to stm32f10x_usart.o(i.USART_Cmd) for USART_Cmd
    USART.o(i._ZN5USART6UpdateE11USART_Param) refers to stm32f10x_usart.o(i.USART_DeInit) for USART_DeInit
    USART.o(i._ZN5USART6UpdateE11USART_Param) refers to memcpya.o(.text) for __aeabi_memcpy4
    USART.o(i._ZN5USART6UpdateE11USART_Param) refers to USART.o(i._ZN5USART15Set_USART_ParamE11USART_Param) for USART::Set_USART_Param(USART_Param)
    USART.o(i._ZN5USART6UpdateE11USART_Param) refers to USART.o(i._ZN11USART_ParamD1Ev) for USART_Param::~USART_Param()
    USART.o(i._ZN5USART6UpdateE11USART_Param) refers to USART.o(i._ZN5USART4InitEv) for USART::Init()
    USART.o(i._ZN5USART8Pin_InitEv) refers to new.o(i._Znwj) for operator new(unsigned)
    USART.o(i._ZN5USART8Pin_InitEv) refers to GPIO.o(i._ZN4GPIOC1EP12GPIO_TypeDef16GPIO_InitTypeDef) for GPIO::GPIO(GPIO_TypeDef*, GPIO_InitTypeDef)
    USART.o(i._ZN5USART8Pin_InitEv) refers to GPIO.o(i._ZN4GPIO4InitEv) for GPIO::Init()
    USART.o(i._ZN5USART8Pin_InitEv) refers to GPIO.o(i._ZN4GPIOD1Ev) for GPIO::~GPIO()
    USART.o(i._ZN5USART8Pin_InitEv) refers to delete.o(i._ZdlPv) for operator delete (void*)
    USART.o(i._ZN5USART8Pin_InitEv) refers to RCC.o(i._ZN11RCC_Operate10RCC_ConfigEP12AFIO_TypeDef15FunctionalState) for RCC_Operate::RCC_Config(AFIO_TypeDef*, FunctionalState)
    USART.o(i._ZN5USART8Pin_InitEv) refers to stm32f10x_gpio.o(i.GPIO_PinRemapConfig) for GPIO_PinRemapConfig
    USART.o(i._ZN5USART8Pin_InitEv) refers to USART.o(.data) for U1_RX_Pin_1
    USART.o(i._ZN5USART9Send_ByteEh) refers to stm32f10x_usart.o(i.USART_SendData) for USART_SendData
    USART.o(i._ZN5USART9Send_ByteEh) refers to stm32f10x_usart.o(i.USART_GetFlagStatus) for USART_GetFlagStatus
    USART.o(i._ZN5USARTC1E11USART_Param) refers to USART.o(i._ZN11USART_ParamC1Ev) for USART_Param::USART_Param()
    USART.o(i._ZN5USARTC1E11USART_Param) refers to memcpya.o(.text) for __aeabi_memcpy4
    USART.o(i._ZN5USARTC1E11USART_Param) refers to USART.o(i._ZN5USART15Set_USART_ParamE11USART_Param) for USART::Set_USART_Param(USART_Param)
    USART.o(i._ZN5USARTC1E11USART_Param) refers to USART.o(i._ZN11USART_ParamD1Ev) for USART_Param::~USART_Param()
    USART.o(i._ZN5USARTC1Ev) refers to USART.o(i._ZN11USART_ParamC1Ev) for USART_Param::USART_Param()
    USART.o(i._ZN5USARTD1Ev) refers to USART.o(i._ZN11USART_ParamD1Ev) for USART_Param::~USART_Param()
    USART.o(i.__sti___9_USART_cpp_e2dc9eab) refers to NVIC.o(i._ZN12NVIC_OperateC1EP16NVIC_InitTypeDef) for NVIC_Operate::NVIC_Operate(NVIC_InitTypeDef*)
    USART.o(i.__sti___9_USART_cpp_e2dc9eab) refers to aeabi_atexit.o(.text) for __aeabi_atexit
    USART.o(i.__sti___9_USART_cpp_e2dc9eab) refers to memcpya.o(.text) for __aeabi_memcpy4
    USART.o(i.__sti___9_USART_cpp_e2dc9eab) refers to USART.o(i._ZN5USARTC1E11USART_Param) for USART::USART(USART_Param)
    USART.o(i.__sti___9_USART_cpp_e2dc9eab) refers to USART.o(i._ZN11USART_ParamD1Ev) for USART_Param::~USART_Param()
    USART.o(i.__sti___9_USART_cpp_e2dc9eab) refers to USART.o(.data) for USART1_Param
    USART.o(i.__sti___9_USART_cpp_e2dc9eab) refers to USART.o(.bss) for USART_1
    USART.o(i.__sti___9_USART_cpp_e2dc9eab) refers to USART.o(i._ZN5USARTD1Ev) for USART::~USART()
    USART.o(.ARM.exidx) refers to USART.o(i._ZN5USARTC1Ev) for i._ZN5USARTC1Ev
    USART.o(.ARM.exidx) refers to USART.o(i._ZN5USARTD1Ev) for i._ZN5USARTD1Ev
    USART.o(.ARM.exidx) refers to USART.o(i._ZN5USART15Set_USART_ParamE11USART_Param) for i._ZN5USART15Set_USART_ParamE11USART_Param
    USART.o(.ARM.exidx) refers to USART.o(i._ZN5USARTC1E11USART_Param) for i._ZN5USARTC1E11USART_Param
    USART.o(.ARM.exidx) refers to USART.o(i._ZN5USART9Send_ByteEh) for i._ZN5USART9Send_ByteEh
    USART.o(.ARM.exidx) refers to USART.o(i._ZN5USART11Send_StringEPh) for i._ZN5USART11Send_StringEPh
    USART.o(.ARM.exidx) refers to USART.o(i._ZN5USART12Receive_ByteEv) for i._ZN5USART12Receive_ByteEv
    USART.o(.ARM.exidx) refers to USART.o(i._ZN5USART8Pin_InitEv) for i._ZN5USART8Pin_InitEv
    USART.o(.ARM.exidx) refers to USART.o(i._ZN5USART5StartEv) for i._ZN5USART5StartEv
    USART.o(.ARM.exidx) refers to USART.o(i._ZN5USART4InitEv) for i._ZN5USART4InitEv
    USART.o(.ARM.exidx) refers to USART.o(i._ZN5USART6UpdateE11USART_Param) for i._ZN5USART6UpdateE11USART_Param
    USART.o(.ARM.exidx) refers to USART.o(i._ZN5USART6ShutUpEv) for i._ZN5USART6ShutUpEv
    USART.o(.ARM.exidx) refers to USART.o(i.__sti___9_USART_cpp_e2dc9eab) for i.__sti___9_USART_cpp_e2dc9eab
    USART.o(.init_array) refers to USART.o(i.__sti___9_USART_cpp_e2dc9eab) for __sti___9_USART_cpp_e2dc9eab
    USART.o(.init_array) refers to cpp_init.o(.text) for __cpp_initialize__aeabi_
    delete.o(i._ZdlPv) refers to malloc.o(i.free) for free
    delete.o(.ARM.exidx) refers to delete.o(i._ZdlPv) for i._ZdlPv
    new.o(i._Znwj) refers to cpp_memory.o(.text) for __rt_new_handler_addr
    new.o(i._Znwj) refers to malloc.o(i.malloc) for malloc
    new.o(i._Znwj) refers to arm_newhandler_noexceptions.o(.text) for __default_new_handler()
    new.o(.ARM.exidx) refers to new.o(i._Znwj) for i._Znwj
    new.o(.ARM.exidx) refers to unwind_pr0.o(.text) for __aeabi_unwind_cpp_pr0
    new.o(.ARM.exidx) refers to new.o(.ARM.extab) for .extab._Znwj
    new.o(.ARM.extab) refers to arm_callunex_noexceptions.o(.text) for __cxa_call_unexpected
    new.o(.ARM.extab) refers to bad_alloc_dtor.o(.constdata__ZTISt9bad_alloc) for typeinfo for std::bad_alloc
    pure_virt.o(i.__cxa_pure_virtual) refers to cpp_signal.o(.text) for __rt_SIGPVFN
    pure_virt.o(.ARM.exidx) refers to pure_virt.o(i.__cxa_pure_virtual) for i.__cxa_pure_virtual
    lib_rtti_impl.o(i._ZN10__cxxabiv116__enum_type_infoD0Ev) refers to lib_rtti_impl.o(i._ZN10__cxxabiv116__enum_type_infoD1Ev) for __cxxabiv1::__enum_type_info::~__enum_type_info()
    lib_rtti_impl.o(i._ZN10__cxxabiv117__array_type_infoD0Ev) refers to lib_rtti_impl.o(i._ZN10__cxxabiv117__array_type_infoD1Ev) for __cxxabiv1::__array_type_info::~__array_type_info()
    lib_rtti_impl.o(i._ZN10__cxxabiv117__class_type_infoD0Ev) refers to lib_rtti_impl.o(i._ZN10__cxxabiv117__class_type_infoD1Ev) for __cxxabiv1::__class_type_info::~__class_type_info()
    lib_rtti_impl.o(i._ZN10__cxxabiv117__pbase_type_infoD0Ev) refers to lib_rtti_impl.o(i._ZN10__cxxabiv117__pbase_type_infoD1Ev) for __cxxabiv1::__pbase_type_info::~__pbase_type_info()
    lib_rtti_impl.o(i._ZN10__cxxabiv119__pointer_type_infoD0Ev) refers to lib_rtti_impl.o(i._ZN10__cxxabiv119__pointer_type_infoD1Ev) for __cxxabiv1::__pointer_type_info::~__pointer_type_info()
    lib_rtti_impl.o(i._ZN10__cxxabiv119__pointer_type_infoD1Ev) refers to lib_rtti_impl.o(i._ZN10__cxxabiv117__pbase_type_infoD1Ev) for __cxxabiv1::__pbase_type_info::~__pbase_type_info()
    lib_rtti_impl.o(i._ZN10__cxxabiv120__function_type_infoD0Ev) refers to lib_rtti_impl.o(i._ZN10__cxxabiv120__function_type_infoD1Ev) for __cxxabiv1::__function_type_info::~__function_type_info()
    lib_rtti_impl.o(i._ZN10__cxxabiv120__si_class_type_infoD0Ev) refers to lib_rtti_impl.o(i._ZN10__cxxabiv120__si_class_type_infoD1Ev) for __cxxabiv1::__si_class_type_info::~__si_class_type_info()
    lib_rtti_impl.o(i._ZN10__cxxabiv120__si_class_type_infoD1Ev) refers to lib_rtti_impl.o(i._ZN10__cxxabiv117__class_type_infoD1Ev) for __cxxabiv1::__class_type_info::~__class_type_info()
    lib_rtti_impl.o(i._ZN10__cxxabiv121__vmi_class_type_infoD0Ev) refers to lib_rtti_impl.o(i._ZN10__cxxabiv121__vmi_class_type_infoD1Ev) for __cxxabiv1::__vmi_class_type_info::~__vmi_class_type_info()
    lib_rtti_impl.o(i._ZN10__cxxabiv121__vmi_class_type_infoD1Ev) refers to lib_rtti_impl.o(i._ZN10__cxxabiv117__class_type_infoD1Ev) for __cxxabiv1::__class_type_info::~__class_type_info()
    lib_rtti_impl.o(i._ZN10__cxxabiv123__fundamental_type_infoD0Ev) refers to lib_rtti_impl.o(i._ZN10__cxxabiv123__fundamental_type_infoD1Ev) for __cxxabiv1::__fundamental_type_info::~__fundamental_type_info()
    lib_rtti_impl.o(i._ZN10__cxxabiv129__pointer_to_member_type_infoD0Ev) refers to lib_rtti_impl.o(i._ZN10__cxxabiv129__pointer_to_member_type_infoD1Ev) for __cxxabiv1::__pointer_to_member_type_info::~__pointer_to_member_type_info()
    lib_rtti_impl.o(i._ZN10__cxxabiv129__pointer_to_member_type_infoD1Ev) refers to lib_rtti_impl.o(i._ZN10__cxxabiv117__pbase_type_infoD1Ev) for __cxxabiv1::__pbase_type_info::~__pbase_type_info()
    lib_rtti_impl.o(.ARM.exidx) refers to lib_rtti_impl.o(i._ZN10__cxxabiv123__fundamental_type_infoD1Ev) for i._ZN10__cxxabiv123__fundamental_type_infoD1Ev
    lib_rtti_impl.o(.ARM.exidx) refers to lib_rtti_impl.o(i._ZN10__cxxabiv123__fundamental_type_infoD0Ev) for i._ZN10__cxxabiv123__fundamental_type_infoD0Ev
    lib_rtti_impl.o(.ARM.exidx) refers to lib_rtti_impl.o(i._ZN10__cxxabiv117__array_type_infoD1Ev) for i._ZN10__cxxabiv117__array_type_infoD1Ev
    lib_rtti_impl.o(.ARM.exidx) refers to lib_rtti_impl.o(i._ZN10__cxxabiv117__array_type_infoD0Ev) for i._ZN10__cxxabiv117__array_type_infoD0Ev
    lib_rtti_impl.o(.ARM.exidx) refers to lib_rtti_impl.o(i._ZN10__cxxabiv120__function_type_infoD1Ev) for i._ZN10__cxxabiv120__function_type_infoD1Ev
    lib_rtti_impl.o(.ARM.exidx) refers to lib_rtti_impl.o(i._ZN10__cxxabiv120__function_type_infoD0Ev) for i._ZN10__cxxabiv120__function_type_infoD0Ev
    lib_rtti_impl.o(.ARM.exidx) refers to lib_rtti_impl.o(i._ZN10__cxxabiv116__enum_type_infoD1Ev) for i._ZN10__cxxabiv116__enum_type_infoD1Ev
    lib_rtti_impl.o(.ARM.exidx) refers to lib_rtti_impl.o(i._ZN10__cxxabiv116__enum_type_infoD0Ev) for i._ZN10__cxxabiv116__enum_type_infoD0Ev
    lib_rtti_impl.o(.ARM.exidx) refers to lib_rtti_impl.o(i._ZN10__cxxabiv117__class_type_infoD1Ev) for i._ZN10__cxxabiv117__class_type_infoD1Ev
    lib_rtti_impl.o(.ARM.exidx) refers to lib_rtti_impl.o(i._ZN10__cxxabiv117__class_type_infoD0Ev) for i._ZN10__cxxabiv117__class_type_infoD0Ev
    lib_rtti_impl.o(.ARM.exidx) refers to lib_rtti_impl.o(i._ZN10__cxxabiv120__si_class_type_infoD1Ev) for i._ZN10__cxxabiv120__si_class_type_infoD1Ev
    lib_rtti_impl.o(.ARM.exidx) refers to lib_rtti_impl.o(i._ZN10__cxxabiv120__si_class_type_infoD0Ev) for i._ZN10__cxxabiv120__si_class_type_infoD0Ev
    lib_rtti_impl.o(.ARM.exidx) refers to lib_rtti_impl.o(i._ZN10__cxxabiv121__vmi_class_type_infoD1Ev) for i._ZN10__cxxabiv121__vmi_class_type_infoD1Ev
    lib_rtti_impl.o(.ARM.exidx) refers to lib_rtti_impl.o(i._ZN10__cxxabiv121__vmi_class_type_infoD0Ev) for i._ZN10__cxxabiv121__vmi_class_type_infoD0Ev
    lib_rtti_impl.o(.ARM.exidx) refers to lib_rtti_impl.o(i._ZN10__cxxabiv117__pbase_type_infoD1Ev) for i._ZN10__cxxabiv117__pbase_type_infoD1Ev
    lib_rtti_impl.o(.ARM.exidx) refers to lib_rtti_impl.o(i._ZN10__cxxabiv117__pbase_type_infoD0Ev) for i._ZN10__cxxabiv117__pbase_type_infoD0Ev
    lib_rtti_impl.o(.ARM.exidx) refers to lib_rtti_impl.o(i._ZN10__cxxabiv119__pointer_type_infoD1Ev) for i._ZN10__cxxabiv119__pointer_type_infoD1Ev
    lib_rtti_impl.o(.ARM.exidx) refers to lib_rtti_impl.o(i._ZN10__cxxabiv119__pointer_type_infoD0Ev) for i._ZN10__cxxabiv119__pointer_type_infoD0Ev
    lib_rtti_impl.o(.ARM.exidx) refers to lib_rtti_impl.o(i._ZN10__cxxabiv129__pointer_to_member_type_infoD1Ev) for i._ZN10__cxxabiv129__pointer_to_member_type_infoD1Ev
    lib_rtti_impl.o(.ARM.exidx) refers to lib_rtti_impl.o(i._ZN10__cxxabiv129__pointer_to_member_type_infoD0Ev) for i._ZN10__cxxabiv129__pointer_to_member_type_infoD0Ev
    entry.o(.ARM.Collect$$$$00000000) refers (Special) to entry10a.o(.ARM.Collect$$$$0000000F) for __rt_final_cpp
    entry.o(.ARM.Collect$$$$00000000) refers (Special) to entry11a.o(.ARM.Collect$$$$00000011) for __rt_final_exit
    entry.o(.ARM.Collect$$$$00000000) refers (Special) to entry12b.o(.ARM.Collect$$$$0000000E) for __rt_lib_shutdown_fini
    entry.o(.ARM.Collect$$$$00000000) refers (Special) to entry7b.o(.ARM.Collect$$$$00000008) for _main_clock
    entry.o(.ARM.Collect$$$$00000000) refers (Special) to entry8b.o(.ARM.Collect$$$$0000000A) for _main_cpp_init
    entry.o(.ARM.Collect$$$$00000000) refers (Special) to entry9a.o(.ARM.Collect$$$$0000000B) for _main_init
    entry.o(.ARM.Collect$$$$00000000) refers (Special) to entry5.o(.ARM.Collect$$$$00000004) for _main_scatterload
    entry.o(.ARM.Collect$$$$00000000) refers (Special) to entry2.o(.ARM.Collect$$$$00000001) for _main_stk
    printfb.o(i.__0fprintf$bare) refers to printfb.o(i._printf_core) for _printf_core
    printfb.o(i.__0fprintf$bare) refers to USART_DEBUG.o(i.fputc) for fputc
    printfb.o(i.__0printf$bare) refers to printfb.o(i._printf_core) for _printf_core
    printfb.o(i.__0printf$bare) refers to USART_DEBUG.o(i.fputc) for fputc
    printfb.o(i.__0printf$bare) refers to stdout.o(.data) for __stdout
    printfb.o(i.__0snprintf$bare) refers to printfb.o(i._printf_core) for _printf_core
    printfb.o(i.__0snprintf$bare) refers to printfb.o(i._snputc) for _snputc
    printfb.o(i.__0sprintf$bare) refers to printfb.o(i._printf_core) for _printf_core
    printfb.o(i.__0sprintf$bare) refers to printfb.o(i._sputc) for _sputc
    printfb.o(i.__0vfprintf$bare) refers to printfb.o(i._printf_core) for _printf_core
    printfb.o(i.__0vfprintf$bare) refers to USART_DEBUG.o(i.fputc) for fputc
    printfb.o(i.__0vprintf$bare) refers to printfb.o(i._printf_core) for _printf_core
    printfb.o(i.__0vprintf$bare) refers to USART_DEBUG.o(i.fputc) for fputc
    printfb.o(i.__0vprintf$bare) refers to stdout.o(.data) for __stdout
    printfb.o(i.__0vsnprintf$bare) refers to printfb.o(i._printf_core) for _printf_core
    printfb.o(i.__0vsnprintf$bare) refers to printfb.o(i._snputc) for _snputc
    printfb.o(i.__0vsprintf$bare) refers to printfb.o(i._printf_core) for _printf_core
    printfb.o(i.__0vsprintf$bare) refers to printfb.o(i._sputc) for _sputc
    printf0.o(i.__0fprintf$0) refers to printf0.o(i._printf_core) for _printf_core
    printf0.o(i.__0fprintf$0) refers to USART_DEBUG.o(i.fputc) for fputc
    printf0.o(i.__0printf$0) refers to printf0.o(i._printf_core) for _printf_core
    printf0.o(i.__0printf$0) refers to USART_DEBUG.o(i.fputc) for fputc
    printf0.o(i.__0printf$0) refers to stdout.o(.data) for __stdout
    printf0.o(i.__0snprintf$0) refers to printf0.o(i._printf_core) for _printf_core
    printf0.o(i.__0snprintf$0) refers to printf0.o(i._snputc) for _snputc
    printf0.o(i.__0sprintf$0) refers to printf0.o(i._printf_core) for _printf_core
    printf0.o(i.__0sprintf$0) refers to printf0.o(i._sputc) for _sputc
    printf0.o(i.__0vfprintf$0) refers to printf0.o(i._printf_core) for _printf_core
    printf0.o(i.__0vfprintf$0) refers to USART_DEBUG.o(i.fputc) for fputc
    printf0.o(i.__0vprintf$0) refers to printf0.o(i._printf_core) for _printf_core
    printf0.o(i.__0vprintf$0) refers to USART_DEBUG.o(i.fputc) for fputc
    printf0.o(i.__0vprintf$0) refers to stdout.o(.data) for __stdout
    printf0.o(i.__0vsnprintf$0) refers to printf0.o(i._printf_core) for _printf_core
    printf0.o(i.__0vsnprintf$0) refers to printf0.o(i._snputc) for _snputc
    printf0.o(i.__0vsprintf$0) refers to printf0.o(i._printf_core) for _printf_core
    printf0.o(i.__0vsprintf$0) refers to printf0.o(i._sputc) for _sputc
    printf1.o(i.__0fprintf$1) refers to printf1.o(i._printf_core) for _printf_core
    printf1.o(i.__0fprintf$1) refers to USART_DEBUG.o(i.fputc) for fputc
    printf1.o(i.__0printf$1) refers to printf1.o(i._printf_core) for _printf_core
    printf1.o(i.__0printf$1) refers to USART_DEBUG.o(i.fputc) for fputc
    printf1.o(i.__0printf$1) refers to stdout.o(.data) for __stdout
    printf1.o(i.__0snprintf$1) refers to printf1.o(i._printf_core) for _printf_core
    printf1.o(i.__0snprintf$1) refers to printf1.o(i._snputc) for _snputc
    printf1.o(i.__0sprintf$1) refers to printf1.o(i._printf_core) for _printf_core
    printf1.o(i.__0sprintf$1) refers to printf1.o(i._sputc) for _sputc
    printf1.o(i.__0vfprintf$1) refers to printf1.o(i._printf_core) for _printf_core
    printf1.o(i.__0vfprintf$1) refers to USART_DEBUG.o(i.fputc) for fputc
    printf1.o(i.__0vprintf$1) refers to printf1.o(i._printf_core) for _printf_core
    printf1.o(i.__0vprintf$1) refers to USART_DEBUG.o(i.fputc) for fputc
    printf1.o(i.__0vprintf$1) refers to stdout.o(.data) for __stdout
    printf1.o(i.__0vsnprintf$1) refers to printf1.o(i._printf_core) for _printf_core
    printf1.o(i.__0vsnprintf$1) refers to printf1.o(i._snputc) for _snputc
    printf1.o(i.__0vsprintf$1) refers to printf1.o(i._printf_core) for _printf_core
    printf1.o(i.__0vsprintf$1) refers to printf1.o(i._sputc) for _sputc
    printf1.o(i._printf_core) refers to uidiv.o(.text) for __aeabi_uidivmod
    printf2.o(i.__0fprintf$2) refers to printf2.o(i._printf_core) for _printf_core
    printf2.o(i.__0fprintf$2) refers to USART_DEBUG.o(i.fputc) for fputc
    printf2.o(i.__0printf$2) refers to printf2.o(i._printf_core) for _printf_core
    printf2.o(i.__0printf$2) refers to USART_DEBUG.o(i.fputc) for fputc
    printf2.o(i.__0printf$2) refers to stdout.o(.data) for __stdout
    printf2.o(i.__0snprintf$2) refers to printf2.o(i._printf_core) for _printf_core
    printf2.o(i.__0snprintf$2) refers to printf2.o(i._snputc) for _snputc
    printf2.o(i.__0sprintf$2) refers to printf2.o(i._printf_core) for _printf_core
    printf2.o(i.__0sprintf$2) refers to printf2.o(i._sputc) for _sputc
    printf2.o(i.__0vfprintf$2) refers to printf2.o(i._printf_core) for _printf_core
    printf2.o(i.__0vfprintf$2) refers to USART_DEBUG.o(i.fputc) for fputc
    printf2.o(i.__0vprintf$2) refers to printf2.o(i._printf_core) for _printf_core
    printf2.o(i.__0vprintf$2) refers to USART_DEBUG.o(i.fputc) for fputc
    printf2.o(i.__0vprintf$2) refers to stdout.o(.data) for __stdout
    printf2.o(i.__0vsnprintf$2) refers to printf2.o(i._printf_core) for _printf_core
    printf2.o(i.__0vsnprintf$2) refers to printf2.o(i._snputc) for _snputc
    printf2.o(i.__0vsprintf$2) refers to printf2.o(i._printf_core) for _printf_core
    printf2.o(i.__0vsprintf$2) refers to printf2.o(i._sputc) for _sputc
    printf3.o(i.__0fprintf$3) refers to printf3.o(i._printf_core) for _printf_core
    printf3.o(i.__0fprintf$3) refers to USART_DEBUG.o(i.fputc) for fputc
    printf3.o(i.__0printf$3) refers to printf3.o(i._printf_core) for _printf_core
    printf3.o(i.__0printf$3) refers to USART_DEBUG.o(i.fputc) for fputc
    printf3.o(i.__0printf$3) refers to stdout.o(.data) for __stdout
    printf3.o(i.__0snprintf$3) refers to printf3.o(i._printf_core) for _printf_core
    printf3.o(i.__0snprintf$3) refers to printf3.o(i._snputc) for _snputc
    printf3.o(i.__0sprintf$3) refers to printf3.o(i._printf_core) for _printf_core
    printf3.o(i.__0sprintf$3) refers to printf3.o(i._sputc) for _sputc
    printf3.o(i.__0vfprintf$3) refers to printf3.o(i._printf_core) for _printf_core
    printf3.o(i.__0vfprintf$3) refers to USART_DEBUG.o(i.fputc) for fputc
    printf3.o(i.__0vprintf$3) refers to printf3.o(i._printf_core) for _printf_core
    printf3.o(i.__0vprintf$3) refers to USART_DEBUG.o(i.fputc) for fputc
    printf3.o(i.__0vprintf$3) refers to stdout.o(.data) for __stdout
    printf3.o(i.__0vsnprintf$3) refers to printf3.o(i._printf_core) for _printf_core
    printf3.o(i.__0vsnprintf$3) refers to printf3.o(i._snputc) for _snputc
    printf3.o(i.__0vsprintf$3) refers to printf3.o(i._printf_core) for _printf_core
    printf3.o(i.__0vsprintf$3) refers to printf3.o(i._sputc) for _sputc
    printf3.o(i._printf_core) refers to uidiv.o(.text) for __aeabi_uidivmod
    printf4.o(i.__0fprintf$4) refers to printf4.o(i._printf_core) for _printf_core
    printf4.o(i.__0fprintf$4) refers to USART_DEBUG.o(i.fputc) for fputc
    printf4.o(i.__0printf$4) refers to printf4.o(i._printf_core) for _printf_core
    printf4.o(i.__0printf$4) refers to USART_DEBUG.o(i.fputc) for fputc
    printf4.o(i.__0printf$4) refers to stdout.o(.data) for __stdout
    printf4.o(i.__0snprintf$4) refers to printf4.o(i._printf_core) for _printf_core
    printf4.o(i.__0snprintf$4) refers to printf4.o(i._snputc) for _snputc
    printf4.o(i.__0sprintf$4) refers to printf4.o(i._printf_core) for _printf_core
    printf4.o(i.__0sprintf$4) refers to printf4.o(i._sputc) for _sputc
    printf4.o(i.__0vfprintf$4) refers to printf4.o(i._printf_core) for _printf_core
    printf4.o(i.__0vfprintf$4) refers to USART_DEBUG.o(i.fputc) for fputc
    printf4.o(i.__0vprintf$4) refers to printf4.o(i._printf_core) for _printf_core
    printf4.o(i.__0vprintf$4) refers to USART_DEBUG.o(i.fputc) for fputc
    printf4.o(i.__0vprintf$4) refers to stdout.o(.data) for __stdout
    printf4.o(i.__0vsnprintf$4) refers to printf4.o(i._printf_core) for _printf_core
    printf4.o(i.__0vsnprintf$4) refers to printf4.o(i._snputc) for _snputc
    printf4.o(i.__0vsprintf$4) refers to printf4.o(i._printf_core) for _printf_core
    printf4.o(i.__0vsprintf$4) refers to printf4.o(i._sputc) for _sputc
    printf4.o(i._printf_core) refers to uldiv.o(.text) for __aeabi_uldivmod
    printf5.o(i.__0fprintf$5) refers to printf5.o(i._printf_core) for _printf_core
    printf5.o(i.__0fprintf$5) refers to USART_DEBUG.o(i.fputc) for fputc
    printf5.o(i.__0printf$5) refers to printf5.o(i._printf_core) for _printf_core
    printf5.o(i.__0printf$5) refers to USART_DEBUG.o(i.fputc) for fputc
    printf5.o(i.__0printf$5) refers to stdout.o(.data) for __stdout
    printf5.o(i.__0snprintf$5) refers to printf5.o(i._printf_core) for _printf_core
    printf5.o(i.__0snprintf$5) refers to printf5.o(i._snputc) for _snputc
    printf5.o(i.__0sprintf$5) refers to printf5.o(i._printf_core) for _printf_core
    printf5.o(i.__0sprintf$5) refers to printf5.o(i._sputc) for _sputc
    printf5.o(i.__0vfprintf$5) refers to printf5.o(i._printf_core) for _printf_core
    printf5.o(i.__0vfprintf$5) refers to USART_DEBUG.o(i.fputc) for fputc
    printf5.o(i.__0vprintf$5) refers to printf5.o(i._printf_core) for _printf_core
    printf5.o(i.__0vprintf$5) refers to USART_DEBUG.o(i.fputc) for fputc
    printf5.o(i.__0vprintf$5) refers to stdout.o(.data) for __stdout
    printf5.o(i.__0vsnprintf$5) refers to printf5.o(i._printf_core) for _printf_core
    printf5.o(i.__0vsnprintf$5) refers to printf5.o(i._snputc) for _snputc
    printf5.o(i.__0vsprintf$5) refers to printf5.o(i._printf_core) for _printf_core
    printf5.o(i.__0vsprintf$5) refers to printf5.o(i._sputc) for _sputc
    printf5.o(i._printf_core) refers to uldiv.o(.text) for __aeabi_uldivmod
    printf6.o(i.__0fprintf$6) refers to printf6.o(i._printf_core) for _printf_core
    printf6.o(i.__0fprintf$6) refers to USART_DEBUG.o(i.fputc) for fputc
    printf6.o(i.__0printf$6) refers to printf6.o(i._printf_core) for _printf_core
    printf6.o(i.__0printf$6) refers to USART_DEBUG.o(i.fputc) for fputc
    printf6.o(i.__0printf$6) refers to stdout.o(.data) for __stdout
    printf6.o(i.__0snprintf$6) refers to printf6.o(i._printf_core) for _printf_core
    printf6.o(i.__0snprintf$6) refers to printf6.o(i._snputc) for _snputc
    printf6.o(i.__0sprintf$6) refers to printf6.o(i._printf_core) for _printf_core
    printf6.o(i.__0sprintf$6) refers to printf6.o(i._sputc) for _sputc
    printf6.o(i.__0vfprintf$6) refers to printf6.o(i._printf_core) for _printf_core
    printf6.o(i.__0vfprintf$6) refers to USART_DEBUG.o(i.fputc) for fputc
    printf6.o(i.__0vprintf$6) refers to printf6.o(i._printf_core) for _printf_core
    printf6.o(i.__0vprintf$6) refers to USART_DEBUG.o(i.fputc) for fputc
    printf6.o(i.__0vprintf$6) refers to stdout.o(.data) for __stdout
    printf6.o(i.__0vsnprintf$6) refers to printf6.o(i._printf_core) for _printf_core
    printf6.o(i.__0vsnprintf$6) refers to printf6.o(i._snputc) for _snputc
    printf6.o(i.__0vsprintf$6) refers to printf6.o(i._printf_core) for _printf_core
    printf6.o(i.__0vsprintf$6) refers to printf6.o(i._sputc) for _sputc
    printf6.o(i._printf_core) refers to printf6.o(i._printf_pre_padding) for _printf_pre_padding
    printf6.o(i._printf_core) refers to uidiv.o(.text) for __aeabi_uidivmod
    printf6.o(i._printf_core) refers to printf6.o(i._printf_post_padding) for _printf_post_padding
    printf7.o(i.__0fprintf$7) refers to printf7.o(i._printf_core) for _printf_core
    printf7.o(i.__0fprintf$7) refers to USART_DEBUG.o(i.fputc) for fputc
    printf7.o(i.__0printf$7) refers to printf7.o(i._printf_core) for _printf_core
    printf7.o(i.__0printf$7) refers to USART_DEBUG.o(i.fputc) for fputc
    printf7.o(i.__0printf$7) refers to stdout.o(.data) for __stdout
    printf7.o(i.__0snprintf$7) refers to printf7.o(i._printf_core) for _printf_core
    printf7.o(i.__0snprintf$7) refers to printf7.o(i._snputc) for _snputc
    printf7.o(i.__0sprintf$7) refers to printf7.o(i._printf_core) for _printf_core
    printf7.o(i.__0sprintf$7) refers to printf7.o(i._sputc) for _sputc
    printf7.o(i.__0vfprintf$7) refers to printf7.o(i._printf_core) for _printf_core
    printf7.o(i.__0vfprintf$7) refers to USART_DEBUG.o(i.fputc) for fputc
    printf7.o(i.__0vprintf$7) refers to printf7.o(i._printf_core) for _printf_core
    printf7.o(i.__0vprintf$7) refers to USART_DEBUG.o(i.fputc) for fputc
    printf7.o(i.__0vprintf$7) refers to stdout.o(.data) for __stdout
    printf7.o(i.__0vsnprintf$7) refers to printf7.o(i._printf_core) for _printf_core
    printf7.o(i.__0vsnprintf$7) refers to printf7.o(i._snputc) for _snputc
    printf7.o(i.__0vsprintf$7) refers to printf7.o(i._printf_core) for _printf_core
    printf7.o(i.__0vsprintf$7) refers to printf7.o(i._sputc) for _sputc
    printf7.o(i._printf_core) refers to printf7.o(i._printf_pre_padding) for _printf_pre_padding
    printf7.o(i._printf_core) refers to uldiv.o(.text) for __aeabi_uldivmod
    printf7.o(i._printf_core) refers to printf7.o(i._printf_post_padding) for _printf_post_padding
    printf8.o(i.__0fprintf$8) refers to printf8.o(i._printf_core) for _printf_core
    printf8.o(i.__0fprintf$8) refers to USART_DEBUG.o(i.fputc) for fputc
    printf8.o(i.__0printf$8) refers to printf8.o(i._printf_core) for _printf_core
    printf8.o(i.__0printf$8) refers to USART_DEBUG.o(i.fputc) for fputc
    printf8.o(i.__0printf$8) refers to stdout.o(.data) for __stdout
    printf8.o(i.__0snprintf$8) refers to printf8.o(i._printf_core) for _printf_core
    printf8.o(i.__0snprintf$8) refers to printf8.o(i._snputc) for _snputc
    printf8.o(i.__0sprintf$8) refers to printf8.o(i._printf_core) for _printf_core
    printf8.o(i.__0sprintf$8) refers to printf8.o(i._sputc) for _sputc
    printf8.o(i.__0vfprintf$8) refers to printf8.o(i._printf_core) for _printf_core
    printf8.o(i.__0vfprintf$8) refers to USART_DEBUG.o(i.fputc) for fputc
    printf8.o(i.__0vprintf$8) refers to printf8.o(i._printf_core) for _printf_core
    printf8.o(i.__0vprintf$8) refers to USART_DEBUG.o(i.fputc) for fputc
    printf8.o(i.__0vprintf$8) refers to stdout.o(.data) for __stdout
    printf8.o(i.__0vsnprintf$8) refers to printf8.o(i._printf_core) for _printf_core
    printf8.o(i.__0vsnprintf$8) refers to printf8.o(i._snputc) for _snputc
    printf8.o(i.__0vsprintf$8) refers to printf8.o(i._printf_core) for _printf_core
    printf8.o(i.__0vsprintf$8) refers to printf8.o(i._sputc) for _sputc
    printf8.o(i._printf_core) refers to printf8.o(i._printf_pre_padding) for _printf_pre_padding
    printf8.o(i._printf_core) refers to uldiv.o(.text) for __aeabi_uldivmod
    printf8.o(i._printf_core) refers to printf8.o(i._printf_post_padding) for _printf_post_padding
    printfa.o(i.__0fprintf) refers (Special) to iusefp.o(.text) for __I$use$fp
    printfa.o(i.__0fprintf) refers to printfa.o(i._printf_core) for _printf_core
    printfa.o(i.__0fprintf) refers to USART_DEBUG.o(i.fputc) for fputc
    printfa.o(i.__0printf) refers (Special) to iusefp.o(.text) for __I$use$fp
    printfa.o(i.__0printf) refers to printfa.o(i._printf_core) for _printf_core
    printfa.o(i.__0printf) refers to USART_DEBUG.o(i.fputc) for fputc
    printfa.o(i.__0printf) refers to stdout.o(.data) for __stdout
    printfa.o(i.__0snprintf) refers (Special) to iusefp.o(.text) for __I$use$fp
    printfa.o(i.__0snprintf) refers to printfa.o(i._printf_core) for _printf_core
    printfa.o(i.__0snprintf) refers to printfa.o(i._snputc) for _snputc
    printfa.o(i.__0sprintf) refers (Special) to iusefp.o(.text) for __I$use$fp
    printfa.o(i.__0sprintf) refers to printfa.o(i._printf_core) for _printf_core
    printfa.o(i.__0sprintf) refers to printfa.o(i._sputc) for _sputc
    printfa.o(i.__0vfprintf) refers (Special) to iusefp.o(.text) for __I$use$fp
    printfa.o(i.__0vfprintf) refers to printfa.o(i._printf_core) for _printf_core
    printfa.o(i.__0vfprintf) refers to USART_DEBUG.o(i.fputc) for fputc
    printfa.o(i.__0vprintf) refers (Special) to iusefp.o(.text) for __I$use$fp
    printfa.o(i.__0vprintf) refers to printfa.o(i._printf_core) for _printf_core
    printfa.o(i.__0vprintf) refers to USART_DEBUG.o(i.fputc) for fputc
    printfa.o(i.__0vprintf) refers to stdout.o(.data) for __stdout
    printfa.o(i.__0vsnprintf) refers (Special) to iusefp.o(.text) for __I$use$fp
    printfa.o(i.__0vsnprintf) refers to printfa.o(i._printf_core) for _printf_core
    printfa.o(i.__0vsnprintf) refers to printfa.o(i._snputc) for _snputc
    printfa.o(i.__0vsprintf) refers (Special) to iusefp.o(.text) for __I$use$fp
    printfa.o(i.__0vsprintf) refers to printfa.o(i._printf_core) for _printf_core
    printfa.o(i.__0vsprintf) refers to printfa.o(i._sputc) for _sputc
    printfa.o(i._fp_digits) refers (Special) to iusefp.o(.text) for __I$use$fp
    printfa.o(i._fp_digits) refers to dmul.o(.text) for __aeabi_dmul
    printfa.o(i._fp_digits) refers to ddiv.o(.text) for __aeabi_ddiv
    printfa.o(i._fp_digits) refers to cdrcmple.o(.text) for __aeabi_cdrcmple
    printfa.o(i._fp_digits) refers to dadd.o(.text) for __aeabi_dadd
    printfa.o(i._fp_digits) refers to dfixul.o(.text) for __aeabi_d2ulz
    printfa.o(i._fp_digits) refers to uldiv.o(.text) for __aeabi_uldivmod
    printfa.o(i._printf_core) refers (Special) to iusefp.o(.text) for __I$use$fp
    printfa.o(i._printf_core) refers to printfa.o(i._printf_pre_padding) for _printf_pre_padding
    printfa.o(i._printf_core) refers to uldiv.o(.text) for __aeabi_uldivmod
    printfa.o(i._printf_core) refers to printfa.o(i._printf_post_padding) for _printf_post_padding
    printfa.o(i._printf_core) refers to printfa.o(i._fp_digits) for _fp_digits
    printfa.o(i._printf_core) refers to uidiv.o(.text) for __aeabi_uidivmod
    printfa.o(i._printf_post_padding) refers (Special) to iusefp.o(.text) for __I$use$fp
    printfa.o(i._printf_pre_padding) refers (Special) to iusefp.o(.text) for __I$use$fp
    printfa.o(i._snputc) refers (Special) to iusefp.o(.text) for __I$use$fp
    printfa.o(i._sputc) refers (Special) to iusefp.o(.text) for __I$use$fp
    cpp_init.o(.emb_text) refers (Special) to entry8a.o(.ARM.Collect$$$$00000009) for _main_cpp_init$empty
    cpp_init.o(.init_array) refers (Special) to entry8a.o(.ARM.Collect$$$$00000009) for _main_cpp_init$empty
    cpp_init.o(.init_array) refers to cpp_init.o(.text) for __cpp_initialize__aeabi_
    cpp_init.o(.dummy_text) refers (Special) to entry8a.o(.ARM.Collect$$$$00000009) for _main_cpp_init$empty
    cpp_init.o(.text) refers (Special) to entry8a.o(.ARM.Collect$$$$00000009) for _main_cpp_init$empty
    aeabi_atexit.o(.text) refers (Special) to cxa_finalize.o(.text) for __cxa_finalize
    aeabi_atexit.o(.text) refers to malloc.o(i.malloc) for malloc
    aeabi_atexit.o(.text) refers to cpp_dtor.o(.text) for __rt_ddtor_pointer_addr
    dadd.o(.text) refers (Special) to iusefp.o(.text) for __I$use$fp
    dadd.o(.text) refers to llshl.o(.text) for __aeabi_llsl
    dadd.o(.text) refers to llsshr.o(.text) for __aeabi_lasr
    dadd.o(.text) refers to depilogue.o(.text) for _double_epilogue
    dmul.o(.text) refers (Special) to iusefp.o(.text) for __I$use$fp
    dmul.o(.text) refers to depilogue.o(.text) for _double_epilogue
    ddiv.o(.text) refers (Special) to iusefp.o(.text) for __I$use$fp
    ddiv.o(.text) refers to depilogue.o(.text) for _double_round
    dflti.o(.text) refers (Special) to iusefp.o(.text) for __I$use$fp
    dflti.o(.text) refers to depilogue.o(.text) for _double_epilogue
    dfltui.o(.text) refers (Special) to iusefp.o(.text) for __I$use$fp
    dfltui.o(.text) refers to depilogue.o(.text) for _double_epilogue
    dfixi.o(.text) refers (Special) to iusefp.o(.text) for __I$use$fp
    dfixi.o(.text) refers to llushr.o(.text) for __aeabi_llsr
    dfixui.o(.text) refers (Special) to iusefp.o(.text) for __I$use$fp
    dfixui.o(.text) refers to llushr.o(.text) for __aeabi_llsr
    cdcmple.o(.text) refers (Special) to iusefp.o(.text) for __I$use$fp
    arm_callunex_noexceptions.o(.ARM.exidx) refers to arm_callunex_noexceptions.o(.text) for .text
    arm_newhandler_noexceptions.o(.text) refers to arm_exceptions_terminate.o(.text) for std::terminate()
    arm_newhandler_noexceptions.o(.ARM.exidx) refers to arm_newhandler_noexceptions.o(.text) for .text
    bad_alloc_dtor.o(i._ZNSt9bad_allocD0Ev) refers to bad_alloc_dtor.o(i._ZNSt9bad_allocD1Ev) for std::bad_alloc::~bad_alloc()
    bad_alloc_dtor.o(i._ZNSt9bad_allocD0Ev) refers to delete.o(i._ZdlPv) for operator delete (void*)
    bad_alloc_dtor.o(.ARM.exidx) refers to bad_alloc_dtor.o(i._ZNSt9bad_allocD1Ev) for i._ZNSt9bad_allocD1Ev
    bad_alloc_dtor.o(.ARM.exidx) refers to bad_alloc_dtor.o(i._ZNSt9bad_allocD0Ev) for i._ZNSt9bad_allocD0Ev
    type_info_dtor.o(.ARM.exidx) refers to type_info_dtor.o(i._ZNSt9type_infoD1Ev) for i._ZNSt9type_infoD1Ev
    type_info_dtor.o(.ARM.exidx) refers to type_info_dtor.o(i._ZNSt9type_infoD0Ev) for i._ZNSt9type_infoD0Ev
    arm_exceptions_callterm.o(.text) refers to arm_exceptions_globs.o(.text) for __cxa_get_globals
    arm_exceptions_callterm.o(.text) refers to arm_exceptions_support.o(.text) for __ARM::is_foreign_exception(_Unwind_Control_Block*)
    arm_exceptions_callterm.o(.text) refers to arm_exceptions_terminate.o(.text) for std::terminate()
    arm_exceptions_callterm.o(.ARM.exidx) refers to arm_exceptions_callterm.o(.text) for .text
    unwind_pr0.o(.text) refers to unwind_prcommon.o(.text) for __ARM_unwind_cpp_prcommon
    unwind_pr0.o(.ARM.exidx) refers to unwind_pr0.o(.text) for .text
    entry2.o(.ARM.Collect$$$$00000001) refers to entry2.o(.ARM.Collect$$$$00002712) for __lit__00000000
    entry2.o(.ARM.Collect$$$$00002712) refers to startup_stm32f10x_hd.o(STACK) for __initial_sp
    entry2.o(__vectab_stack_and_reset_area) refers to startup_stm32f10x_hd.o(STACK) for __initial_sp
    entry2.o(__vectab_stack_and_reset_area) refers to entry.o(.ARM.Collect$$$$00000000) for __main
    entry5.o(.ARM.Collect$$$$00000004) refers to init.o(.text) for __scatterload
    entry8a.o(.ARM.Collect$$$$00000009) refers (Weak) to cpp_init.o(.text) for __cpp_initialize__aeabi_
    entry10b.o(.ARM.Collect$$$$00000010) refers (Weak) to cxa_finalize.o(.text) for __cxa_finalize
    uldiv.o(.text) refers to llushr.o(.text) for __aeabi_llsr
    uldiv.o(.text) refers to llshl.o(.text) for __aeabi_llsl
    malloc.o(i.free) refers to mvars.o(.data) for __microlib_freelist
    malloc.o(i.malloc) refers to mvars.o(.data) for __microlib_freelist_initialised
    malloc.o(i.malloc) refers to mvars.o(.data) for __microlib_freelist
    malloc.o(i.malloc) refers to startup_stm32f10x_hd.o(HEAP) for __heap_base
    mallocr.o(i.__free$realloc) refers to mvars.o(.data) for __microlib_freelist
    mallocr.o(i.__malloc$realloc) refers to mallocr.o(i.internal_alloc) for internal_alloc
    mallocr.o(i.__malloc$realloc) refers to mvars.o(.data) for __microlib_freelist_initialised
    mallocr.o(i.__malloc$realloc) refers to startup_stm32f10x_hd.o(HEAP) for __heap_base
    mallocr.o(i.__malloc$realloc) refers to mvars.o(.data) for __microlib_freelist
    mallocr.o(i.internal_alloc) refers to memcpya.o(.text) for __aeabi_memcpy
    mallocr.o(i.internal_alloc) refers to mvars.o(.data) for __microlib_freelist
    mallocr.o(i.realloc) refers to mallocr.o(i.__free$realloc) for __free$realloc
    mallocr.o(i.realloc) refers to mallocr.o(i.internal_alloc) for internal_alloc
    mallocr.o(i.realloc) refers to mallocr.o(i.__malloc$realloc) for __malloc$realloc
    mallocr.o(i.realloc) refers to mvars.o(.data) for __microlib_freelist
    malloca.o(i.__aligned_malloc) refers to mvars.o(.data) for __microlib_freelist_initialised
    malloca.o(i.__aligned_malloc) refers to mvars.o(.data) for __microlib_freelist
    malloca.o(i.__aligned_malloc) refers to startup_stm32f10x_hd.o(HEAP) for __heap_base
    malloca.o(i.__free$memalign) refers to mvars.o(.data) for __microlib_freelist
    malloca.o(i.__malloc$memalign) refers to malloca.o(i.__aligned_malloc) for __aligned_malloc
    mallocra.o(i.__aligned_malloc$realloc) refers to mallocra.o(i.internal_alloc) for internal_alloc
    mallocra.o(i.__aligned_malloc$realloc) refers to mvars.o(.data) for __microlib_freelist_initialised
    mallocra.o(i.__aligned_malloc$realloc) refers to startup_stm32f10x_hd.o(HEAP) for __heap_base
    mallocra.o(i.__aligned_malloc$realloc) refers to mvars.o(.data) for __microlib_freelist
    mallocra.o(i.__free$realloc$memalign) refers to mvars.o(.data) for __microlib_freelist
    mallocra.o(i.__malloc$realloc$memalign) refers to mallocra.o(i.__aligned_malloc$realloc) for __aligned_malloc$realloc
    mallocra.o(i.__realloc$memalign) refers to mallocra.o(i.__free$realloc$memalign) for __free$realloc$memalign
    mallocra.o(i.__realloc$memalign) refers to mallocra.o(i.internal_alloc) for internal_alloc
    mallocra.o(i.__realloc$memalign) refers to mallocra.o(i.__malloc$realloc$memalign) for __malloc$realloc$memalign
    mallocra.o(i.__realloc$memalign) refers to mvars.o(.data) for __microlib_freelist
    mallocra.o(i.internal_alloc) refers to memcpya.o(.text) for __aeabi_memcpy
    mallocra.o(i.internal_alloc) refers to mvars.o(.data) for __microlib_freelist
    cpp_dtor.o(.text) refers to cpp_dtor.o(.data) for .data
    cpp_memory.o(.text) refers to cpp_memory.o(.data) for .data
    cxa_finalize.o(.text) refers (Special) to cpp_final.o(.text) for __rt_lib_shutdown_cpp_2
    cxa_finalize.o(.text) refers to cpp_dtor.o(.text) for __rt_ddtor_pointer_addr
    cxa_finalize.o(.text) refers to malloc.o(i.free) for free
    depilogue.o(.text) refers to llshl.o(.text) for __aeabi_llsl
    depilogue.o(.text) refers to llushr.o(.text) for __aeabi_llsr
    dfixul.o(.text) refers to llushr.o(.text) for __aeabi_llsr
    dfixul.o(.text) refers to llshl.o(.text) for __aeabi_llsl
    arm_begincatch_noexceptions.o(.ARM.exidx) refers to arm_begincatch_noexceptions.o(.text) for .text
    bad_alloc_what.o(.ARM.exidx) refers to bad_alloc_what.o(i._ZNKSt9bad_alloc4whatEv) for i._ZNKSt9bad_alloc4whatEv
    exception_dtor.o(i._ZNSt9exceptionD0Ev) refers to delete.o(i._ZdlPv) for operator delete (void*)
    exception_dtor.o(.ARM.exidx) refers to exception_dtor.o(i._ZNSt9exceptionD1Ev) for i._ZNSt9exceptionD1Ev
    exception_dtor.o(.ARM.exidx) refers to exception_dtor.o(i._ZNSt9exceptionD0Ev) for i._ZNSt9exceptionD0Ev
    arm_exceptions_support.o(.text) refers to arm_exceptions_support.o(.constdata) for .constdata
    arm_exceptions_support.o(.ARM.exidx) refers to arm_exceptions_support.o(.text) for .text
    arm_exceptions_terminate.o(.text) refers to arm_exceptions_globs.o(.text) for __cxa_get_globals
    arm_exceptions_terminate.o(.ARM.exidx) refers to arm_exceptions_terminate.o(.text) for .text
    arm_exceptions_globs.o(.text) refers to cpp_memory.o(.text) for __rt_eh_globals_addr
    arm_exceptions_globs.o(.text) refers to malloc.o(i.malloc) for malloc
    arm_exceptions_globs.o(.text) refers to arm_exceptions_mem.o(.text) for __ARM_exceptions_buffer_init
    arm_exceptions_globs.o(.ARM.exidx) refers to arm_exceptions_globs.o(.text) for .text
    unwind_prcommon.o(.text) refers to unwinder.o(.text) for _Unwind_VRS_Get
    unwind_prcommon.o(.text) refers to unwind_activity.o(.emb_text) for _Unwind_Activity
    unwind_prcommon.o(.text) refers (Weak) to arm_callunex_noexceptions.o(.text) for __cxa_call_unexpected
    unwind_prcommon.o(.ARM.exidx) refers to unwind_prcommon.o(.text) for .text
    init.o(.text) refers to entry5.o(.ARM.Collect$$$$00000004) for __main_after_scatterload
    cpp_final.o(.text) refers (Special) to entry10b.o(.ARM.Collect$$$$00000010) for __rt_final_cpp$nonempty
    exception_what.o(.ARM.exidx) refers to exception_what.o(i._ZNKSt9exception4whatEv) for i._ZNKSt9exception4whatEv
    arm_exceptions_mem.o(.text) refers to malloc.o(i.malloc) for malloc
    arm_exceptions_mem.o(.ARM.exidx) refers to arm_exceptions_mem.o(.text) for .text
    unwinder.o(.emb_text) refers to unwinder.o(.text) for __ARM_Unwind_RaiseException
    unwinder.o(.text) refers to bsearch.o(.text) for bsearch
    unwinder.o(.text) refers to unwind_activity.o(.emb_text) for _Unwind_Activity
    unwinder.o(.text) refers to unwinder.o(.emb_text) for __ARM_Unwind_VRS_corerestore
    unwinder.o(.text) refers to malloc.o(i.malloc) for malloc
    unwinder.o(.text) refers to memcpya.o(.text) for __aeabi_memcpy4
    unwinder.o(.text) refers to malloc.o(i.free) for free
    unwinder.o(.text) refers (Weak) to unwind_pr0.o(.text) for __aeabi_unwind_cpp_pr0
    unwinder.o(.ARM.exidx) refers to unwinder.o(.text) for .text
    LCD_12864_Parallel.o(.constdata__ZTV18LCD_12864_Parallel) refers to LCD_12864_Parallel.o(.constdata__ZTI18LCD_12864_Parallel) for typeinfo for LCD_12864_Parallel
    LCD_12864_Parallel.o(.constdata__ZTV18LCD_12864_Parallel) refers to LCD_12864_Parallel.o(i._ZN18LCD_12864_Parallel11Clear_DDRAMEv) for LCD_12864_Parallel::Clear_DDRAM()
    LCD_12864_Parallel.o(.constdata__ZTV18LCD_12864_Parallel) refers to LCD_12864_Parallel.o(i._ZN18LCD_12864_Parallel9Send_ByteEh) for LCD_12864_Parallel::Send_Byte(unsigned char)
    LCD_12864_Parallel.o(.constdata__ZTV18LCD_12864_Parallel) refers to LCD_12864_Parallel.o(i._ZN18LCD_12864_Parallel9Write_CmdEh) for LCD_12864_Parallel::Write_Cmd(unsigned char)
    LCD_12864_Parallel.o(.constdata__ZTV18LCD_12864_Parallel) refers to LCD_12864_Parallel.o(i._ZN18LCD_12864_Parallel10Write_DataEh) for LCD_12864_Parallel::Write_Data(unsigned char)
    LCD_12864_Parallel.o(.constdata__ZTV18LCD_12864_Parallel) refers to LCD_12864_Parallel.o(i._ZN18LCD_12864_Parallel3PosEhh) for LCD_12864_Parallel::Pos(unsigned char, unsigned char)
    LCD_12864_Parallel.o(.constdata__ZTV18LCD_12864_Parallel) refers to LCD_12864_Parallel.o(i._ZN18LCD_12864_Parallel4InitEv) for LCD_12864_Parallel::Init()
    LCD_12864_Parallel.o(.constdata__ZTV18LCD_12864_Parallel) refers to LCD_12864_Parallel.o(i._ZN18LCD_12864_Parallel8Pin_InitEv) for LCD_12864_Parallel::Pin_Init()
    LCD_12864_Parallel.o(.constdata__ZTV18LCD_12864_Parallel) refers to LCD_12864_Parallel.o(i._ZN18LCD_12864_Parallel10Check_BusyEv) for LCD_12864_Parallel::Check_Busy()
    LCD_12864_Parallel.o(.constdata__ZTV18LCD_12864_Parallel) refers to LCD_12864_Parallel.o(i._ZN18LCD_12864_Parallel9Set_CGRAMEhPh) for LCD_12864_Parallel::Set_CGRAM(unsigned char, unsigned char*)
    LCD_12864_Parallel.o(.constdata__ZTV18LCD_12864_Parallel) refers to LCD_12864_Parallel.o(i._ZN18LCD_12864_Parallel13Display_CGRAMEhhh) for LCD_12864_Parallel::Display_CGRAM(unsigned char, unsigned char, unsigned char)
    LCD_12864_Parallel.o(.constdata__ZTV18LCD_12864_Parallel) refers to LCD_12864_Parallel.o(i._ZN18LCD_12864_Parallel11Show_StringEPhtt) for LCD_12864_Parallel::Show_String(unsigned char*, unsigned short, unsigned short)
    LCD_12864_Parallel.o(.constdata__ZTV18LCD_12864_Parallel) refers to LCD_12864_Parallel.o(i._ZN18LCD_12864_Parallel13Display_ImageEPh) for LCD_12864_Parallel::Display_Image(unsigned char*)
    LCD_12864_Parallel.o(.constdata__ZTV18LCD_12864_Parallel) refers to LCD_12864_Parallel.o(i._ZN18LCD_12864_Parallel14Draw_RectangleEhhhhh) for LCD_12864_Parallel::Draw_Rectangle(unsigned char, unsigned char, unsigned char, unsigned char, unsigned char)
    LCD_12864_Parallel.o(.constdata__ZTV18LCD_12864_Parallel) refers to LCD_12864_Parallel.o(i._ZN18LCD_12864_Parallel16Draw_Rectangle_1Ehhhhh) for LCD_12864_Parallel::Draw_Rectangle_1(unsigned char, unsigned char, unsigned char, unsigned char, unsigned char)
    LCD_12864_Parallel.o(.constdata__ZTV18LCD_12864_Parallel) refers to LCD_12864_Parallel.o(i._ZN18LCD_12864_Parallel10Draw_PointEhhh) for LCD_12864_Parallel::Draw_Point(unsigned char, unsigned char, unsigned char)
    LCD_12864_Parallel.o(.constdata__ZTV18LCD_12864_Parallel) refers to LCD_12864_Parallel.o(i._ZN18LCD_12864_Parallel11Clear_GDRAMEv) for LCD_12864_Parallel::Clear_GDRAM()
    LCD_12864_Parallel.o(.constdata__ZTV18LCD_12864_Parallel) refers to LCD_12864_Parallel.o(i._ZN18LCD_12864_Parallel10Read_GDRAMEhh) for LCD_12864_Parallel::Read_GDRAM(unsigned char, unsigned char)
    LCD_12864_Parallel.o(.constdata__ZTV18LCD_12864_Parallel) refers to LCD_12864_Parallel.o(i._ZN18LCD_12864_Parallel12Set_GDRAMaddEhh) for LCD_12864_Parallel::Set_GDRAMadd(unsigned char, unsigned char)
    LCD_12864_Parallel.o(.constdata__ZTV18LCD_12864_Parallel) refers to LCD_12864_Parallel.o(i._ZN18LCD_12864_Parallel9Read_DataEv) for LCD_12864_Parallel::Read_Data()
    LCD_12864_Parallel.o(.constdata__ZTV18LCD_12864_Parallel) refers to LCD_12864_Parallel.o(i._ZN18LCD_12864_Parallel12Receive_ByteEv) for LCD_12864_Parallel::Receive_Byte()
    LCD_12864_Parallel.o(.constdata__ZTV18LCD_12864_Parallel) refers to LCD_12864_Parallel.o(i._ZN18LCD_12864_Parallel11Read_StatusEv) for LCD_12864_Parallel::Read_Status()
    LCD_12864_Parallel.o(i._ZN9LCD_12864C2Ev) refers to LCD_12864_Parallel.o(.constdata__ZTV9LCD_12864) for vtable for LCD_12864
    LCD_12864_Parallel.o(.ARM.exidx) refers to LCD_12864_Parallel.o(i._ZN9LCD_12864C2Ev) for i._ZN9LCD_12864C2Ev
    LCD_12864_Parallel.o(.constdata__ZTV9LCD_12864) refers to LCD_12864_Parallel.o(.constdata__ZTI9LCD_12864) for typeinfo for LCD_12864
    LCD_12864_Parallel.o(.constdata__ZTV9LCD_12864) refers to pure_virt.o(i.__cxa_pure_virtual) for __cxa_pure_virtual
    LCD_12864_Parallel.o(.constdata__ZTI18LCD_12864_Parallel) refers to lib_rtti_impl.o(.constdata__ZTVN10__cxxabiv120__si_class_type_infoE) for vtable for __cxxabiv1::__si_class_type_info
    LCD_12864_Parallel.o(.constdata__ZTI18LCD_12864_Parallel) refers to LCD_12864_Parallel.o(.constdata__ZTS18LCD_12864_Parallel) for typeinfo name for LCD_12864_Parallel
    LCD_12864_Parallel.o(.constdata__ZTI18LCD_12864_Parallel) refers to LCD_12864_Parallel.o(.constdata__ZTI9LCD_12864) for typeinfo for LCD_12864
    LCD_12864_Parallel.o(.constdata__ZTI9LCD_12864) refers to lib_rtti_impl.o(.constdata__ZTVN10__cxxabiv117__class_type_infoE) for vtable for __cxxabiv1::__class_type_info
    LCD_12864_Parallel.o(.constdata__ZTI9LCD_12864) refers to LCD_12864_Parallel.o(.constdata__ZTS9LCD_12864) for typeinfo name for LCD_12864
    LCD_12864_Serial.o(.constdata__ZTV16LCD_12864_Serial) refers to LCD_12864_Serial.o(.constdata__ZTI16LCD_12864_Serial) for typeinfo for LCD_12864_Serial
    LCD_12864_Serial.o(.constdata__ZTV16LCD_12864_Serial) refers to LCD_12864_Serial.o(i._ZN16LCD_12864_Serial11Clear_DDRAMEv) for LCD_12864_Serial::Clear_DDRAM()
    LCD_12864_Serial.o(.constdata__ZTV16LCD_12864_Serial) refers to LCD_12864_Serial.o(i._ZN16LCD_12864_Serial9Send_ByteEh) for LCD_12864_Serial::Send_Byte(unsigned char)
    LCD_12864_Serial.o(.constdata__ZTV16LCD_12864_Serial) refers to LCD_12864_Serial.o(i._ZN16LCD_12864_Serial9Write_CmdEh) for LCD_12864_Serial::Write_Cmd(unsigned char)
    LCD_12864_Serial.o(.constdata__ZTV16LCD_12864_Serial) refers to LCD_12864_Serial.o(i._ZN16LCD_12864_Serial10Write_DataEh) for LCD_12864_Serial::Write_Data(unsigned char)
    LCD_12864_Serial.o(.constdata__ZTV16LCD_12864_Serial) refers to LCD_12864_Serial.o(i._ZN16LCD_12864_Serial3PosEhh) for LCD_12864_Serial::Pos(unsigned char, unsigned char)
    LCD_12864_Serial.o(.constdata__ZTV16LCD_12864_Serial) refers to LCD_12864_Serial.o(i._ZN16LCD_12864_Serial4InitEv) for LCD_12864_Serial::Init()
    LCD_12864_Serial.o(.constdata__ZTV16LCD_12864_Serial) refers to LCD_12864_Serial.o(i._ZN16LCD_12864_Serial8Pin_InitEv) for LCD_12864_Serial::Pin_Init()
    LCD_12864_Serial.o(.constdata__ZTV16LCD_12864_Serial) refers to LCD_12864_Serial.o(i._ZN16LCD_12864_Serial10Check_BusyEv) for LCD_12864_Serial::Check_Busy()
    LCD_12864_Serial.o(.constdata__ZTV16LCD_12864_Serial) refers to LCD_12864_Serial.o(i._ZN16LCD_12864_Serial9Set_CGRAMEhPh) for LCD_12864_Serial::Set_CGRAM(unsigned char, unsigned char*)
    LCD_12864_Serial.o(.constdata__ZTV16LCD_12864_Serial) refers to LCD_12864_Serial.o(i._ZN16LCD_12864_Serial13Display_CGRAMEhhh) for LCD_12864_Serial::Display_CGRAM(unsigned char, unsigned char, unsigned char)
    LCD_12864_Serial.o(.constdata__ZTV16LCD_12864_Serial) refers to LCD_12864_Serial.o(i._ZN16LCD_12864_Serial11Show_StringEPhtt) for LCD_12864_Serial::Show_String(unsigned char*, unsigned short, unsigned short)
    LCD_12864_Serial.o(.constdata__ZTV16LCD_12864_Serial) refers to LCD_12864_Serial.o(i._ZN16LCD_12864_Serial13Display_ImageEPh) for LCD_12864_Serial::Display_Image(unsigned char*)
    LCD_12864_Serial.o(.constdata__ZTV16LCD_12864_Serial) refers to LCD_12864_Serial.o(i._ZN16LCD_12864_Serial14Draw_RectangleEhhhhh) for LCD_12864_Serial::Draw_Rectangle(unsigned char, unsigned char, unsigned char, unsigned char, unsigned char)
    LCD_12864_Serial.o(.constdata__ZTV16LCD_12864_Serial) refers to LCD_12864_Serial.o(i._ZN16LCD_12864_Serial16Draw_Rectangle_1Ehhhhh) for LCD_12864_Serial::Draw_Rectangle_1(unsigned char, unsigned char, unsigned char, unsigned char, unsigned char)
    LCD_12864_Serial.o(.constdata__ZTV16LCD_12864_Serial) refers to LCD_12864_Serial.o(i._ZN16LCD_12864_Serial10Draw_PointEhhh) for LCD_12864_Serial::Draw_Point(unsigned char, unsigned char, unsigned char)
    LCD_12864_Serial.o(.constdata__ZTV16LCD_12864_Serial) refers to LCD_12864_Serial.o(i._ZN16LCD_12864_Serial11Clear_GDRAMEv) for LCD_12864_Serial::Clear_GDRAM()
    LCD_12864_Serial.o(.constdata__ZTV16LCD_12864_Serial) refers to LCD_12864_Serial.o(i._ZN16LCD_12864_Serial10Read_GDRAMEhh) for LCD_12864_Serial::Read_GDRAM(unsigned char, unsigned char)
    LCD_12864_Serial.o(.constdata__ZTV16LCD_12864_Serial) refers to LCD_12864_Serial.o(i._ZN16LCD_12864_Serial12Set_GDRAMaddEhh) for LCD_12864_Serial::Set_GDRAMadd(unsigned char, unsigned char)
    LCD_12864_Serial.o(.constdata__ZTV16LCD_12864_Serial) refers to LCD_12864_Serial.o(i._ZN16LCD_12864_Serial9Read_DataEv) for LCD_12864_Serial::Read_Data()
    LCD_12864_Serial.o(.constdata__ZTV16LCD_12864_Serial) refers to LCD_12864_Serial.o(i._ZN16LCD_12864_Serial12Receive_ByteEv) for LCD_12864_Serial::Receive_Byte()
    LCD_12864_Serial.o(.constdata__ZTV16LCD_12864_Serial) refers to LCD_12864_Serial.o(i._ZN16LCD_12864_Serial11Read_StatusEv) for LCD_12864_Serial::Read_Status()
    LCD_12864_Serial.o(.constdata__ZTI16LCD_12864_Serial) refers to lib_rtti_impl.o(.constdata__ZTVN10__cxxabiv120__si_class_type_infoE) for vtable for __cxxabiv1::__si_class_type_info
    LCD_12864_Serial.o(.constdata__ZTI16LCD_12864_Serial) refers to LCD_12864_Serial.o(.constdata__ZTS16LCD_12864_Serial) for typeinfo name for LCD_12864_Serial
    LCD_12864_Serial.o(.constdata__ZTI16LCD_12864_Serial) refers to LCD_12864_Parallel.o(.constdata__ZTI9LCD_12864) for typeinfo for LCD_12864
    I2C.o(i._ZN9I2C_ParamC1Ev) refers to NVIC.o(i._ZN12NVIC_OperateC1Ev) for NVIC_Operate::NVIC_Operate()
    I2C.o(.ARM.exidx) refers to I2C.o(i._ZN9I2C_ParamC1Ev) for i._ZN9I2C_ParamC1Ev
    I2C.o(i._ZN9I2C_ParamD1Ev) refers to NVIC.o(i._ZN12NVIC_OperateD1Ev) for NVIC_Operate::~NVIC_Operate()
    I2C.o(.ARM.exidx) refers to I2C.o(i._ZN9I2C_ParamD1Ev) for i._ZN9I2C_ParamD1Ev
    TIM.o(i._ZN9TIM_ParmaC1Ev) refers to NVIC.o(i._ZN12NVIC_OperateC1Ev) for NVIC_Operate::NVIC_Operate()
    TIM.o(.ARM.exidx) refers to TIM.o(i._ZN9TIM_ParmaC1Ev) for i._ZN9TIM_ParmaC1Ev
    TIM.o(i._ZN9TIM_ParmaD1Ev) refers to NVIC.o(i._ZN12NVIC_OperateD1Ev) for NVIC_Operate::~NVIC_Operate()
    TIM.o(.ARM.exidx) refers to TIM.o(i._ZN9TIM_ParmaD1Ev) for i._ZN9TIM_ParmaD1Ev
    USART.o(i._ZN11USART_ParamC1Ev) refers to NVIC.o(i._ZN12NVIC_OperateC1Ev) for NVIC_Operate::NVIC_Operate()
    USART.o(.ARM.exidx) refers to USART.o(i._ZN11USART_ParamC1Ev) for i._ZN11USART_ParamC1Ev
    USART.o(i._ZN11USART_ParamD1Ev) refers to NVIC.o(i._ZN12NVIC_OperateD1Ev) for NVIC_Operate::~NVIC_Operate()
    USART.o(.ARM.exidx) refers to USART.o(i._ZN11USART_ParamD1Ev) for i._ZN11USART_ParamD1Ev
    lib_rtti_impl.o(.constdata__ZTVN10__cxxabiv123__fundamental_type_infoE) refers to lib_rtti_impl.o(.constdata__ZTIN10__cxxabiv123__fundamental_type_infoE) for typeinfo for __cxxabiv1::__fundamental_type_info
    lib_rtti_impl.o(.constdata__ZTVN10__cxxabiv123__fundamental_type_infoE) refers to lib_rtti_impl.o(i._ZN10__cxxabiv123__fundamental_type_infoD1Ev) for __cxxabiv1::__fundamental_type_info::~__fundamental_type_info()
    lib_rtti_impl.o(.constdata__ZTVN10__cxxabiv123__fundamental_type_infoE) refers to lib_rtti_impl.o(i._ZN10__cxxabiv123__fundamental_type_infoD0Ev) for __cxxabiv1::__fundamental_type_info::~__fundamental_type_info__deallocating()
    lib_rtti_impl.o(.constdata__ZTVN10__cxxabiv117__array_type_infoE) refers to lib_rtti_impl.o(.constdata__ZTIN10__cxxabiv117__array_type_infoE) for typeinfo for __cxxabiv1::__array_type_info
    lib_rtti_impl.o(.constdata__ZTVN10__cxxabiv117__array_type_infoE) refers to lib_rtti_impl.o(i._ZN10__cxxabiv117__array_type_infoD1Ev) for __cxxabiv1::__array_type_info::~__array_type_info()
    lib_rtti_impl.o(.constdata__ZTVN10__cxxabiv117__array_type_infoE) refers to lib_rtti_impl.o(i._ZN10__cxxabiv117__array_type_infoD0Ev) for __cxxabiv1::__array_type_info::~__array_type_info__deallocating()
    lib_rtti_impl.o(.constdata__ZTVN10__cxxabiv120__function_type_infoE) refers to lib_rtti_impl.o(.constdata__ZTIN10__cxxabiv120__function_type_infoE) for typeinfo for __cxxabiv1::__function_type_info
    lib_rtti_impl.o(.constdata__ZTVN10__cxxabiv120__function_type_infoE) refers to lib_rtti_impl.o(i._ZN10__cxxabiv120__function_type_infoD1Ev) for __cxxabiv1::__function_type_info::~__function_type_info()
    lib_rtti_impl.o(.constdata__ZTVN10__cxxabiv120__function_type_infoE) refers to lib_rtti_impl.o(i._ZN10__cxxabiv120__function_type_infoD0Ev) for __cxxabiv1::__function_type_info::~__function_type_info__deallocating()
    lib_rtti_impl.o(.constdata__ZTVN10__cxxabiv116__enum_type_infoE) refers to lib_rtti_impl.o(.constdata__ZTIN10__cxxabiv116__enum_type_infoE) for typeinfo for __cxxabiv1::__enum_type_info
    lib_rtti_impl.o(.constdata__ZTVN10__cxxabiv116__enum_type_infoE) refers to lib_rtti_impl.o(i._ZN10__cxxabiv116__enum_type_infoD1Ev) for __cxxabiv1::__enum_type_info::~__enum_type_info()
    lib_rtti_impl.o(.constdata__ZTVN10__cxxabiv116__enum_type_infoE) refers to lib_rtti_impl.o(i._ZN10__cxxabiv116__enum_type_infoD0Ev) for __cxxabiv1::__enum_type_info::~__enum_type_info__deallocating()
    lib_rtti_impl.o(.constdata__ZTVN10__cxxabiv117__class_type_infoE) refers to lib_rtti_impl.o(.constdata__ZTIN10__cxxabiv117__class_type_infoE) for typeinfo for __cxxabiv1::__class_type_info
    lib_rtti_impl.o(.constdata__ZTVN10__cxxabiv117__class_type_infoE) refers to lib_rtti_impl.o(i._ZN10__cxxabiv117__class_type_infoD1Ev) for __cxxabiv1::__class_type_info::~__class_type_info()
    lib_rtti_impl.o(.constdata__ZTVN10__cxxabiv117__class_type_infoE) refers to lib_rtti_impl.o(i._ZN10__cxxabiv117__class_type_infoD0Ev) for __cxxabiv1::__class_type_info::~__class_type_info__deallocating()
    lib_rtti_impl.o(.constdata__ZTVN10__cxxabiv120__si_class_type_infoE) refers to lib_rtti_impl.o(.constdata__ZTIN10__cxxabiv120__si_class_type_infoE) for typeinfo for __cxxabiv1::__si_class_type_info
    lib_rtti_impl.o(.constdata__ZTVN10__cxxabiv120__si_class_type_infoE) refers to lib_rtti_impl.o(i._ZN10__cxxabiv120__si_class_type_infoD1Ev) for __cxxabiv1::__si_class_type_info::~__si_class_type_info()
    lib_rtti_impl.o(.constdata__ZTVN10__cxxabiv120__si_class_type_infoE) refers to lib_rtti_impl.o(i._ZN10__cxxabiv120__si_class_type_infoD0Ev) for __cxxabiv1::__si_class_type_info::~__si_class_type_info__deallocating()
    lib_rtti_impl.o(.constdata__ZTVN10__cxxabiv121__vmi_class_type_infoE) refers to lib_rtti_impl.o(.constdata__ZTIN10__cxxabiv121__vmi_class_type_infoE) for typeinfo for __cxxabiv1::__vmi_class_type_info
    lib_rtti_impl.o(.constdata__ZTVN10__cxxabiv121__vmi_class_type_infoE) refers to lib_rtti_impl.o(i._ZN10__cxxabiv121__vmi_class_type_infoD1Ev) for __cxxabiv1::__vmi_class_type_info::~__vmi_class_type_info()
    lib_rtti_impl.o(.constdata__ZTVN10__cxxabiv121__vmi_class_type_infoE) refers to lib_rtti_impl.o(i._ZN10__cxxabiv121__vmi_class_type_infoD0Ev) for __cxxabiv1::__vmi_class_type_info::~__vmi_class_type_info__deallocating()
    lib_rtti_impl.o(.constdata__ZTVN10__cxxabiv117__pbase_type_infoE) refers to lib_rtti_impl.o(.constdata__ZTIN10__cxxabiv117__pbase_type_infoE) for typeinfo for __cxxabiv1::__pbase_type_info
    lib_rtti_impl.o(.constdata__ZTVN10__cxxabiv117__pbase_type_infoE) refers to lib_rtti_impl.o(i._ZN10__cxxabiv117__pbase_type_infoD1Ev) for __cxxabiv1::__pbase_type_info::~__pbase_type_info()
    lib_rtti_impl.o(.constdata__ZTVN10__cxxabiv117__pbase_type_infoE) refers to lib_rtti_impl.o(i._ZN10__cxxabiv117__pbase_type_infoD0Ev) for __cxxabiv1::__pbase_type_info::~__pbase_type_info__deallocating()
    lib_rtti_impl.o(.constdata__ZTVN10__cxxabiv119__pointer_type_infoE) refers to lib_rtti_impl.o(.constdata__ZTIN10__cxxabiv119__pointer_type_infoE) for typeinfo for __cxxabiv1::__pointer_type_info
    lib_rtti_impl.o(.constdata__ZTVN10__cxxabiv119__pointer_type_infoE) refers to lib_rtti_impl.o(i._ZN10__cxxabiv119__pointer_type_infoD1Ev) for __cxxabiv1::__pointer_type_info::~__pointer_type_info()
    lib_rtti_impl.o(.constdata__ZTVN10__cxxabiv119__pointer_type_infoE) refers to lib_rtti_impl.o(i._ZN10__cxxabiv119__pointer_type_infoD0Ev) for __cxxabiv1::__pointer_type_info::~__pointer_type_info__deallocating()
    lib_rtti_impl.o(.constdata__ZTVN10__cxxabiv129__pointer_to_member_type_infoE) refers to lib_rtti_impl.o(.constdata__ZTIN10__cxxabiv129__pointer_to_member_type_infoE) for typeinfo for __cxxabiv1::__pointer_to_member_type_info
    lib_rtti_impl.o(.constdata__ZTVN10__cxxabiv129__pointer_to_member_type_infoE) refers to lib_rtti_impl.o(i._ZN10__cxxabiv129__pointer_to_member_type_infoD1Ev) for __cxxabiv1::__pointer_to_member_type_info::~__pointer_to_member_type_info()
    lib_rtti_impl.o(.constdata__ZTVN10__cxxabiv129__pointer_to_member_type_infoE) refers to lib_rtti_impl.o(i._ZN10__cxxabiv129__pointer_to_member_type_infoD0Ev) for __cxxabiv1::__pointer_to_member_type_info::~__pointer_to_member_type_info__deallocating()
    lib_rtti_impl.o(.ARM.exidx) refers to lib_rtti_impl.o(i._ZNSt9type_infodlEPv) for i._ZNSt9type_infodlEPv
    lib_rtti_impl.o(.constdata__ZTIN10__cxxabiv123__fundamental_type_infoE) refers to lib_rtti_impl.o(.constdata__ZTVN10__cxxabiv120__si_class_type_infoE) for vtable for __cxxabiv1::__si_class_type_info
    lib_rtti_impl.o(.constdata__ZTIN10__cxxabiv123__fundamental_type_infoE) refers to lib_rtti_impl.o(.constdata__ZTSN10__cxxabiv123__fundamental_type_infoE) for typeinfo name for __cxxabiv1::__fundamental_type_info
    lib_rtti_impl.o(.constdata__ZTIN10__cxxabiv123__fundamental_type_infoE) refers to type_info_dtor.o(.constdata__ZTISt9type_info) for typeinfo for std::type_info
    lib_rtti_impl.o(.constdata__ZTIN10__cxxabiv117__array_type_infoE) refers to lib_rtti_impl.o(.constdata__ZTVN10__cxxabiv120__si_class_type_infoE) for vtable for __cxxabiv1::__si_class_type_info
    lib_rtti_impl.o(.constdata__ZTIN10__cxxabiv117__array_type_infoE) refers to lib_rtti_impl.o(.constdata__ZTSN10__cxxabiv117__array_type_infoE) for typeinfo name for __cxxabiv1::__array_type_info
    lib_rtti_impl.o(.constdata__ZTIN10__cxxabiv117__array_type_infoE) refers to type_info_dtor.o(.constdata__ZTISt9type_info) for typeinfo for std::type_info
    lib_rtti_impl.o(.constdata__ZTIN10__cxxabiv120__function_type_infoE) refers to lib_rtti_impl.o(.constdata__ZTVN10__cxxabiv120__si_class_type_infoE) for vtable for __cxxabiv1::__si_class_type_info
    lib_rtti_impl.o(.constdata__ZTIN10__cxxabiv120__function_type_infoE) refers to lib_rtti_impl.o(.constdata__ZTSN10__cxxabiv120__function_type_infoE) for typeinfo name for __cxxabiv1::__function_type_info
    lib_rtti_impl.o(.constdata__ZTIN10__cxxabiv120__function_type_infoE) refers to type_info_dtor.o(.constdata__ZTISt9type_info) for typeinfo for std::type_info
    lib_rtti_impl.o(.constdata__ZTIN10__cxxabiv116__enum_type_infoE) refers to lib_rtti_impl.o(.constdata__ZTVN10__cxxabiv120__si_class_type_infoE) for vtable for __cxxabiv1::__si_class_type_info
    lib_rtti_impl.o(.constdata__ZTIN10__cxxabiv116__enum_type_infoE) refers to lib_rtti_impl.o(.constdata__ZTSN10__cxxabiv116__enum_type_infoE) for typeinfo name for __cxxabiv1::__enum_type_info
    lib_rtti_impl.o(.constdata__ZTIN10__cxxabiv116__enum_type_infoE) refers to type_info_dtor.o(.constdata__ZTISt9type_info) for typeinfo for std::type_info
    lib_rtti_impl.o(.constdata__ZTIN10__cxxabiv117__class_type_infoE) refers to lib_rtti_impl.o(.constdata__ZTVN10__cxxabiv120__si_class_type_infoE) for vtable for __cxxabiv1::__si_class_type_info
    lib_rtti_impl.o(.constdata__ZTIN10__cxxabiv117__class_type_infoE) refers to lib_rtti_impl.o(.constdata__ZTSN10__cxxabiv117__class_type_infoE) for typeinfo name for __cxxabiv1::__class_type_info
    lib_rtti_impl.o(.constdata__ZTIN10__cxxabiv117__class_type_infoE) refers to type_info_dtor.o(.constdata__ZTISt9type_info) for typeinfo for std::type_info
    lib_rtti_impl.o(.constdata__ZTIN10__cxxabiv120__si_class_type_infoE) refers to lib_rtti_impl.o(.constdata__ZTVN10__cxxabiv120__si_class_type_infoE) for vtable for __cxxabiv1::__si_class_type_info
    lib_rtti_impl.o(.constdata__ZTIN10__cxxabiv120__si_class_type_infoE) refers to lib_rtti_impl.o(.constdata__ZTSN10__cxxabiv120__si_class_type_infoE) for typeinfo name for __cxxabiv1::__si_class_type_info
    lib_rtti_impl.o(.constdata__ZTIN10__cxxabiv120__si_class_type_infoE) refers to lib_rtti_impl.o(.constdata__ZTIN10__cxxabiv117__class_type_infoE) for typeinfo for __cxxabiv1::__class_type_info
    lib_rtti_impl.o(.constdata__ZTIN10__cxxabiv121__vmi_class_type_infoE) refers to lib_rtti_impl.o(.constdata__ZTVN10__cxxabiv120__si_class_type_infoE) for vtable for __cxxabiv1::__si_class_type_info
    lib_rtti_impl.o(.constdata__ZTIN10__cxxabiv121__vmi_class_type_infoE) refers to lib_rtti_impl.o(.constdata__ZTSN10__cxxabiv121__vmi_class_type_infoE) for typeinfo name for __cxxabiv1::__vmi_class_type_info
    lib_rtti_impl.o(.constdata__ZTIN10__cxxabiv121__vmi_class_type_infoE) refers to lib_rtti_impl.o(.constdata__ZTIN10__cxxabiv117__class_type_infoE) for typeinfo for __cxxabiv1::__class_type_info
    lib_rtti_impl.o(.constdata__ZTIN10__cxxabiv117__pbase_type_infoE) refers to lib_rtti_impl.o(.constdata__ZTVN10__cxxabiv120__si_class_type_infoE) for vtable for __cxxabiv1::__si_class_type_info
    lib_rtti_impl.o(.constdata__ZTIN10__cxxabiv117__pbase_type_infoE) refers to lib_rtti_impl.o(.constdata__ZTSN10__cxxabiv117__pbase_type_infoE) for typeinfo name for __cxxabiv1::__pbase_type_info
    lib_rtti_impl.o(.constdata__ZTIN10__cxxabiv117__pbase_type_infoE) refers to type_info_dtor.o(.constdata__ZTISt9type_info) for typeinfo for std::type_info
    lib_rtti_impl.o(.constdata__ZTIN10__cxxabiv119__pointer_type_infoE) refers to lib_rtti_impl.o(.constdata__ZTVN10__cxxabiv120__si_class_type_infoE) for vtable for __cxxabiv1::__si_class_type_info
    lib_rtti_impl.o(.constdata__ZTIN10__cxxabiv119__pointer_type_infoE) refers to lib_rtti_impl.o(.constdata__ZTSN10__cxxabiv119__pointer_type_infoE) for typeinfo name for __cxxabiv1::__pointer_type_info
    lib_rtti_impl.o(.constdata__ZTIN10__cxxabiv119__pointer_type_infoE) refers to lib_rtti_impl.o(.constdata__ZTIN10__cxxabiv117__pbase_type_infoE) for typeinfo for __cxxabiv1::__pbase_type_info
    lib_rtti_impl.o(.constdata__ZTIN10__cxxabiv129__pointer_to_member_type_infoE) refers to lib_rtti_impl.o(.constdata__ZTVN10__cxxabiv120__si_class_type_infoE) for vtable for __cxxabiv1::__si_class_type_info
    lib_rtti_impl.o(.constdata__ZTIN10__cxxabiv129__pointer_to_member_type_infoE) refers to lib_rtti_impl.o(.constdata__ZTSN10__cxxabiv129__pointer_to_member_type_infoE) for typeinfo name for __cxxabiv1::__pointer_to_member_type_info
    lib_rtti_impl.o(.constdata__ZTIN10__cxxabiv129__pointer_to_member_type_infoE) refers to lib_rtti_impl.o(.constdata__ZTIN10__cxxabiv117__pbase_type_infoE) for typeinfo for __cxxabiv1::__pbase_type_info
    lib_rtti_impl.o(i.__ARM_common_noexcept_landing) refers to arm_exceptions_callterm.o(.text) for __cxa_call_terminate
    lib_rtti_impl.o(.ARM.exidx) refers to lib_rtti_impl.o(i.__ARM_common_noexcept_landing) for i.__ARM_common_noexcept_landing
    bad_alloc_dtor.o(.constdata__ZTVSt9bad_alloc) refers to bad_alloc_dtor.o(.constdata__ZTISt9bad_alloc) for typeinfo for std::bad_alloc
    bad_alloc_dtor.o(.constdata__ZTVSt9bad_alloc) refers to bad_alloc_dtor.o(i._ZNSt9bad_allocD1Ev) for std::bad_alloc::~bad_alloc()
    bad_alloc_dtor.o(.constdata__ZTVSt9bad_alloc) refers to bad_alloc_dtor.o(i._ZNSt9bad_allocD0Ev) for std::bad_alloc::~bad_alloc__deallocating()
    bad_alloc_dtor.o(.constdata__ZTVSt9bad_alloc) refers to bad_alloc_what.o(i._ZNKSt9bad_alloc4whatEv) for std::bad_alloc::what() const
    bad_alloc_dtor.o(.constdata__ZTISt9bad_alloc) refers to lib_rtti_impl.o(.constdata__ZTVN10__cxxabiv120__si_class_type_infoE) for vtable for __cxxabiv1::__si_class_type_info
    bad_alloc_dtor.o(.constdata__ZTISt9bad_alloc) refers to bad_alloc_dtor.o(.constdata__ZTSSt9bad_alloc) for typeinfo name for std::bad_alloc
    bad_alloc_dtor.o(.constdata__ZTISt9bad_alloc) refers to exception_dtor.o(.constdata__ZTISt9exception) for typeinfo for std::exception
    type_info_dtor.o(.constdata__ZTVSt9type_info) refers to type_info_dtor.o(.constdata__ZTISt9type_info) for typeinfo for std::type_info
    type_info_dtor.o(.constdata__ZTVSt9type_info) refers to type_info_dtor.o(i._ZNSt9type_infoD1Ev) for std::type_info::~type_info()
    type_info_dtor.o(.constdata__ZTVSt9type_info) refers to type_info_dtor.o(i._ZNSt9type_infoD0Ev) for std::type_info::~type_info__deallocating()
    type_info_dtor.o(.constdata__ZTISt9type_info) refers to lib_rtti_impl.o(.constdata__ZTVN10__cxxabiv117__class_type_infoE) for vtable for __cxxabiv1::__class_type_info
    type_info_dtor.o(.constdata__ZTISt9type_info) refers to type_info_dtor.o(.constdata__ZTSSt9type_info) for typeinfo name for std::type_info
    exception_dtor.o(.constdata__ZTVSt9exception) refers to exception_dtor.o(.constdata__ZTISt9exception) for typeinfo for std::exception
    exception_dtor.o(.constdata__ZTVSt9exception) refers to exception_dtor.o(i._ZNSt9exceptionD1Ev) for std::exception::~exception()
    exception_dtor.o(.constdata__ZTVSt9exception) refers to exception_dtor.o(i._ZNSt9exceptionD0Ev) for std::exception::~exception__deallocating()
    exception_dtor.o(.constdata__ZTVSt9exception) refers to exception_what.o(i._ZNKSt9exception4whatEv) for std::exception::what() const
    exception_dtor.o(.constdata__ZTISt9exception) refers to lib_rtti_impl.o(.constdata__ZTVN10__cxxabiv117__class_type_infoE) for vtable for __cxxabiv1::__class_type_info
    exception_dtor.o(.constdata__ZTISt9exception) refers to exception_dtor.o(.constdata__ZTSSt9exception) for typeinfo name for std::exception


==============================================================================

Removing Unused input sections from the image.

    Removing misc.o(.rev16_text), (4 bytes).
    Removing misc.o(.revsh_text), (4 bytes).
    Removing misc.o(.rrx_text), (6 bytes).
    Removing misc.o(i.NVIC_Init), (112 bytes).
    Removing misc.o(i.NVIC_PriorityGroupConfig), (20 bytes).
    Removing misc.o(i.NVIC_SetVectorTable), (20 bytes).
    Removing misc.o(i.NVIC_SystemLPConfig), (32 bytes).
    Removing misc.o(i.SysTick_CLKSourceConfig), (40 bytes).
    Removing stm32f10x_adc.o(.rev16_text), (4 bytes).
    Removing stm32f10x_adc.o(.revsh_text), (4 bytes).
    Removing stm32f10x_adc.o(.rrx_text), (6 bytes).
    Removing stm32f10x_adc.o(i.ADC_AnalogWatchdogCmd), (20 bytes).
    Removing stm32f10x_adc.o(i.ADC_AnalogWatchdogSingleChannelConfig), (16 bytes).
    Removing stm32f10x_adc.o(i.ADC_AnalogWatchdogThresholdsConfig), (6 bytes).
    Removing stm32f10x_adc.o(i.ADC_AutoInjectedConvCmd), (22 bytes).
    Removing stm32f10x_adc.o(i.ADC_ClearFlag), (6 bytes).
    Removing stm32f10x_adc.o(i.ADC_ClearITPendingBit), (10 bytes).
    Removing stm32f10x_adc.o(i.ADC_Cmd), (22 bytes).
    Removing stm32f10x_adc.o(i.ADC_DMACmd), (22 bytes).
    Removing stm32f10x_adc.o(i.ADC_DeInit), (92 bytes).
    Removing stm32f10x_adc.o(i.ADC_DiscModeChannelCountConfig), (24 bytes).
    Removing stm32f10x_adc.o(i.ADC_DiscModeCmd), (22 bytes).
    Removing stm32f10x_adc.o(i.ADC_ExternalTrigConvCmd), (22 bytes).
    Removing stm32f10x_adc.o(i.ADC_ExternalTrigInjectedConvCmd), (22 bytes).
    Removing stm32f10x_adc.o(i.ADC_ExternalTrigInjectedConvConfig), (16 bytes).
    Removing stm32f10x_adc.o(i.ADC_GetCalibrationStatus), (20 bytes).
    Removing stm32f10x_adc.o(i.ADC_GetConversionValue), (8 bytes).
    Removing stm32f10x_adc.o(i.ADC_GetDualModeConversionValue), (12 bytes).
    Removing stm32f10x_adc.o(i.ADC_GetFlagStatus), (18 bytes).
    Removing stm32f10x_adc.o(i.ADC_GetITStatus), (36 bytes).
    Removing stm32f10x_adc.o(i.ADC_GetInjectedConversionValue), (28 bytes).
    Removing stm32f10x_adc.o(i.ADC_GetResetCalibrationStatus), (20 bytes).
    Removing stm32f10x_adc.o(i.ADC_GetSoftwareStartConvStatus), (20 bytes).
    Removing stm32f10x_adc.o(i.ADC_GetSoftwareStartInjectedConvCmdStatus), (20 bytes).
    Removing stm32f10x_adc.o(i.ADC_ITConfig), (24 bytes).
    Removing stm32f10x_adc.o(i.ADC_Init), (80 bytes).
    Removing stm32f10x_adc.o(i.ADC_InjectedChannelConfig), (130 bytes).
    Removing stm32f10x_adc.o(i.ADC_InjectedDiscModeCmd), (22 bytes).
    Removing stm32f10x_adc.o(i.ADC_InjectedSequencerLengthConfig), (24 bytes).
    Removing stm32f10x_adc.o(i.ADC_RegularChannelConfig), (184 bytes).
    Removing stm32f10x_adc.o(i.ADC_ResetCalibration), (10 bytes).
    Removing stm32f10x_adc.o(i.ADC_SetInjectedOffset), (20 bytes).
    Removing stm32f10x_adc.o(i.ADC_SoftwareStartConvCmd), (22 bytes).
    Removing stm32f10x_adc.o(i.ADC_SoftwareStartInjectedConvCmd), (22 bytes).
    Removing stm32f10x_adc.o(i.ADC_StartCalibration), (10 bytes).
    Removing stm32f10x_adc.o(i.ADC_StructInit), (18 bytes).
    Removing stm32f10x_adc.o(i.ADC_TempSensorVrefintCmd), (36 bytes).
    Removing stm32f10x_bkp.o(.rev16_text), (4 bytes).
    Removing stm32f10x_bkp.o(.revsh_text), (4 bytes).
    Removing stm32f10x_bkp.o(.rrx_text), (6 bytes).
    Removing stm32f10x_bkp.o(i.BKP_ClearFlag), (20 bytes).
    Removing stm32f10x_bkp.o(i.BKP_ClearITPendingBit), (20 bytes).
    Removing stm32f10x_bkp.o(i.BKP_DeInit), (16 bytes).
    Removing stm32f10x_bkp.o(i.BKP_GetFlagStatus), (12 bytes).
    Removing stm32f10x_bkp.o(i.BKP_GetITStatus), (12 bytes).
    Removing stm32f10x_bkp.o(i.BKP_ITConfig), (12 bytes).
    Removing stm32f10x_bkp.o(i.BKP_RTCOutputConfig), (28 bytes).
    Removing stm32f10x_bkp.o(i.BKP_ReadBackupRegister), (28 bytes).
    Removing stm32f10x_bkp.o(i.BKP_SetRTCCalibrationValue), (28 bytes).
    Removing stm32f10x_bkp.o(i.BKP_TamperPinCmd), (12 bytes).
    Removing stm32f10x_bkp.o(i.BKP_TamperPinLevelConfig), (12 bytes).
    Removing stm32f10x_bkp.o(i.BKP_WriteBackupRegister), (28 bytes).
    Removing stm32f10x_can.o(.rev16_text), (4 bytes).
    Removing stm32f10x_can.o(.revsh_text), (4 bytes).
    Removing stm32f10x_can.o(.rrx_text), (6 bytes).
    Removing stm32f10x_can.o(i.CAN_CancelTransmit), (48 bytes).
    Removing stm32f10x_can.o(i.CAN_ClearFlag), (56 bytes).
    Removing stm32f10x_can.o(i.CAN_ClearITPendingBit), (168 bytes).
    Removing stm32f10x_can.o(i.CAN_DBGFreeze), (22 bytes).
    Removing stm32f10x_can.o(i.CAN_DeInit), (56 bytes).
    Removing stm32f10x_can.o(i.CAN_FIFORelease), (22 bytes).
    Removing stm32f10x_can.o(i.CAN_FilterInit), (264 bytes).
    Removing stm32f10x_can.o(i.CAN_GetFlagStatus), (120 bytes).
    Removing stm32f10x_can.o(i.CAN_GetITStatus), (288 bytes).
    Removing stm32f10x_can.o(i.CAN_GetLSBTransmitErrorCounter), (12 bytes).
    Removing stm32f10x_can.o(i.CAN_GetLastErrorCode), (12 bytes).
    Removing stm32f10x_can.o(i.CAN_GetReceiveErrorCounter), (10 bytes).
    Removing stm32f10x_can.o(i.CAN_ITConfig), (18 bytes).
    Removing stm32f10x_can.o(i.CAN_Init), (276 bytes).
    Removing stm32f10x_can.o(i.CAN_MessagePending), (30 bytes).
    Removing stm32f10x_can.o(i.CAN_OperatingModeRequest), (162 bytes).
    Removing stm32f10x_can.o(i.CAN_Receive), (240 bytes).
    Removing stm32f10x_can.o(i.CAN_SlaveStartBank), (52 bytes).
    Removing stm32f10x_can.o(i.CAN_Sleep), (30 bytes).
    Removing stm32f10x_can.o(i.CAN_StructInit), (32 bytes).
    Removing stm32f10x_can.o(i.CAN_TTComModeCmd), (118 bytes).
    Removing stm32f10x_can.o(i.CAN_Transmit), (294 bytes).
    Removing stm32f10x_can.o(i.CAN_TransmitStatus), (160 bytes).
    Removing stm32f10x_can.o(i.CAN_WakeUp), (48 bytes).
    Removing stm32f10x_can.o(i.CheckITStatus), (18 bytes).
    Removing stm32f10x_cec.o(.rev16_text), (4 bytes).
    Removing stm32f10x_cec.o(.revsh_text), (4 bytes).
    Removing stm32f10x_cec.o(.rrx_text), (6 bytes).
    Removing stm32f10x_cec.o(i.CEC_ClearFlag), (36 bytes).
    Removing stm32f10x_cec.o(i.CEC_ClearITPendingBit), (36 bytes).
    Removing stm32f10x_cec.o(i.CEC_Cmd), (32 bytes).
    Removing stm32f10x_cec.o(i.CEC_DeInit), (22 bytes).
    Removing stm32f10x_cec.o(i.CEC_EndOfMessageCmd), (12 bytes).
    Removing stm32f10x_cec.o(i.CEC_GetFlagStatus), (48 bytes).
    Removing stm32f10x_cec.o(i.CEC_GetITStatus), (40 bytes).
    Removing stm32f10x_cec.o(i.CEC_ITConfig), (12 bytes).
    Removing stm32f10x_cec.o(i.CEC_Init), (32 bytes).
    Removing stm32f10x_cec.o(i.CEC_OwnAddressConfig), (12 bytes).
    Removing stm32f10x_cec.o(i.CEC_ReceiveDataByte), (12 bytes).
    Removing stm32f10x_cec.o(i.CEC_SendDataByte), (12 bytes).
    Removing stm32f10x_cec.o(i.CEC_SetPrescaler), (12 bytes).
    Removing stm32f10x_cec.o(i.CEC_StartOfMessage), (12 bytes).
    Removing stm32f10x_crc.o(.rev16_text), (4 bytes).
    Removing stm32f10x_crc.o(.revsh_text), (4 bytes).
    Removing stm32f10x_crc.o(.rrx_text), (6 bytes).
    Removing stm32f10x_crc.o(i.CRC_CalcBlockCRC), (36 bytes).
    Removing stm32f10x_crc.o(i.CRC_CalcCRC), (16 bytes).
    Removing stm32f10x_crc.o(i.CRC_GetCRC), (12 bytes).
    Removing stm32f10x_crc.o(i.CRC_GetIDRegister), (12 bytes).
    Removing stm32f10x_crc.o(i.CRC_ResetDR), (12 bytes).
    Removing stm32f10x_crc.o(i.CRC_SetIDRegister), (12 bytes).
    Removing stm32f10x_dac.o(.rev16_text), (4 bytes).
    Removing stm32f10x_dac.o(.revsh_text), (4 bytes).
    Removing stm32f10x_dac.o(.rrx_text), (6 bytes).
    Removing stm32f10x_dac.o(i.DAC_Cmd), (40 bytes).
    Removing stm32f10x_dac.o(i.DAC_DMACmd), (44 bytes).
    Removing stm32f10x_dac.o(i.DAC_DeInit), (22 bytes).
    Removing stm32f10x_dac.o(i.DAC_DualSoftwareTriggerCmd), (36 bytes).
    Removing stm32f10x_dac.o(i.DAC_GetDataOutputValue), (36 bytes).
    Removing stm32f10x_dac.o(i.DAC_Init), (52 bytes).
    Removing stm32f10x_dac.o(i.DAC_SetChannel1Data), (32 bytes).
    Removing stm32f10x_dac.o(i.DAC_SetChannel2Data), (32 bytes).
    Removing stm32f10x_dac.o(i.DAC_SetDualChannelData), (36 bytes).
    Removing stm32f10x_dac.o(i.DAC_SoftwareTriggerCmd), (44 bytes).
    Removing stm32f10x_dac.o(i.DAC_StructInit), (12 bytes).
    Removing stm32f10x_dac.o(i.DAC_WaveGenerationCmd), (40 bytes).
    Removing stm32f10x_dbgmcu.o(.rev16_text), (4 bytes).
    Removing stm32f10x_dbgmcu.o(.revsh_text), (4 bytes).
    Removing stm32f10x_dbgmcu.o(.rrx_text), (6 bytes).
    Removing stm32f10x_dbgmcu.o(i.DBGMCU_Config), (32 bytes).
    Removing stm32f10x_dbgmcu.o(i.DBGMCU_GetDEVID), (16 bytes).
    Removing stm32f10x_dbgmcu.o(i.DBGMCU_GetREVID), (12 bytes).
    Removing stm32f10x_dma.o(.rev16_text), (4 bytes).
    Removing stm32f10x_dma.o(.revsh_text), (4 bytes).
    Removing stm32f10x_dma.o(.rrx_text), (6 bytes).
    Removing stm32f10x_dma.o(i.DMA_ClearFlag), (28 bytes).
    Removing stm32f10x_dma.o(i.DMA_ClearITPendingBit), (28 bytes).
    Removing stm32f10x_dma.o(i.DMA_Cmd), (24 bytes).
    Removing stm32f10x_dma.o(i.DMA_DeInit), (332 bytes).
    Removing stm32f10x_dma.o(i.DMA_GetCurrDataCounter), (8 bytes).
    Removing stm32f10x_dma.o(i.DMA_GetFlagStatus), (44 bytes).
    Removing stm32f10x_dma.o(i.DMA_GetITStatus), (44 bytes).
    Removing stm32f10x_dma.o(i.DMA_ITConfig), (18 bytes).
    Removing stm32f10x_dma.o(i.DMA_Init), (60 bytes).
    Removing stm32f10x_dma.o(i.DMA_SetCurrDataCounter), (4 bytes).
    Removing stm32f10x_dma.o(i.DMA_StructInit), (26 bytes).
    Removing stm32f10x_exti.o(.rev16_text), (4 bytes).
    Removing stm32f10x_exti.o(.revsh_text), (4 bytes).
    Removing stm32f10x_exti.o(.rrx_text), (6 bytes).
    Removing stm32f10x_exti.o(i.EXTI_ClearFlag), (12 bytes).
    Removing stm32f10x_exti.o(i.EXTI_ClearITPendingBit), (12 bytes).
    Removing stm32f10x_exti.o(i.EXTI_DeInit), (36 bytes).
    Removing stm32f10x_exti.o(i.EXTI_GenerateSWInterrupt), (16 bytes).
    Removing stm32f10x_exti.o(i.EXTI_GetFlagStatus), (24 bytes).
    Removing stm32f10x_exti.o(i.EXTI_GetITStatus), (40 bytes).
    Removing stm32f10x_exti.o(i.EXTI_Init), (148 bytes).
    Removing stm32f10x_exti.o(i.EXTI_StructInit), (16 bytes).
    Removing stm32f10x_flash.o(.rev16_text), (4 bytes).
    Removing stm32f10x_flash.o(.revsh_text), (4 bytes).
    Removing stm32f10x_flash.o(.rrx_text), (6 bytes).
    Removing stm32f10x_flash.o(i.FLASH_ClearFlag), (12 bytes).
    Removing stm32f10x_flash.o(i.FLASH_EnableWriteProtection), (196 bytes).
    Removing stm32f10x_flash.o(i.FLASH_EraseAllBank1Pages), (72 bytes).
    Removing stm32f10x_flash.o(i.FLASH_EraseAllPages), (72 bytes).
    Removing stm32f10x_flash.o(i.FLASH_EraseOptionBytes), (168 bytes).
    Removing stm32f10x_flash.o(i.FLASH_ErasePage), (76 bytes).
    Removing stm32f10x_flash.o(i.FLASH_GetBank1Status), (52 bytes).
    Removing stm32f10x_flash.o(i.FLASH_GetFlagStatus), (48 bytes).
    Removing stm32f10x_flash.o(i.FLASH_GetPrefetchBufferStatus), (24 bytes).
    Removing stm32f10x_flash.o(i.FLASH_GetReadOutProtectionStatus), (24 bytes).
    Removing stm32f10x_flash.o(i.FLASH_GetStatus), (52 bytes).
    Removing stm32f10x_flash.o(i.FLASH_GetUserOptionByte), (12 bytes).
    Removing stm32f10x_flash.o(i.FLASH_GetWriteProtectionOptionByte), (12 bytes).
    Removing stm32f10x_flash.o(i.FLASH_HalfCycleAccessCmd), (28 bytes).
    Removing stm32f10x_flash.o(i.FLASH_ITConfig), (32 bytes).
    Removing stm32f10x_flash.o(i.FLASH_Lock), (20 bytes).
    Removing stm32f10x_flash.o(i.FLASH_LockBank1), (20 bytes).
    Removing stm32f10x_flash.o(i.FLASH_PrefetchBufferCmd), (28 bytes).
    Removing stm32f10x_flash.o(i.FLASH_ProgramHalfWord), (64 bytes).
    Removing stm32f10x_flash.o(i.FLASH_ProgramOptionByteData), (84 bytes).
    Removing stm32f10x_flash.o(i.FLASH_ProgramWord), (108 bytes).
    Removing stm32f10x_flash.o(i.FLASH_ReadOutProtection), (172 bytes).
    Removing stm32f10x_flash.o(i.FLASH_SetLatency), (24 bytes).
    Removing stm32f10x_flash.o(i.FLASH_Unlock), (24 bytes).
    Removing stm32f10x_flash.o(i.FLASH_UnlockBank1), (24 bytes).
    Removing stm32f10x_flash.o(i.FLASH_UserOptionByteConfig), (104 bytes).
    Removing stm32f10x_flash.o(i.FLASH_WaitForLastBank1Operation), (38 bytes).
    Removing stm32f10x_flash.o(i.FLASH_WaitForLastOperation), (38 bytes).
    Removing stm32f10x_fsmc.o(.rev16_text), (4 bytes).
    Removing stm32f10x_fsmc.o(.revsh_text), (4 bytes).
    Removing stm32f10x_fsmc.o(.rrx_text), (6 bytes).
    Removing stm32f10x_fsmc.o(i.FSMC_ClearFlag), (64 bytes).
    Removing stm32f10x_fsmc.o(i.FSMC_ClearITPendingBit), (72 bytes).
    Removing stm32f10x_fsmc.o(i.FSMC_GetECC), (28 bytes).
    Removing stm32f10x_fsmc.o(i.FSMC_GetFlagStatus), (56 bytes).
    Removing stm32f10x_fsmc.o(i.FSMC_GetITStatus), (68 bytes).
    Removing stm32f10x_fsmc.o(i.FSMC_ITConfig), (128 bytes).
    Removing stm32f10x_fsmc.o(i.FSMC_NANDCmd), (92 bytes).
    Removing stm32f10x_fsmc.o(i.FSMC_NANDDeInit), (68 bytes).
    Removing stm32f10x_fsmc.o(i.FSMC_NANDECCCmd), (92 bytes).
    Removing stm32f10x_fsmc.o(i.FSMC_NANDInit), (136 bytes).
    Removing stm32f10x_fsmc.o(i.FSMC_NANDStructInit), (54 bytes).
    Removing stm32f10x_fsmc.o(i.FSMC_NORSRAMCmd), (52 bytes).
    Removing stm32f10x_fsmc.o(i.FSMC_NORSRAMDeInit), (54 bytes).
    Removing stm32f10x_fsmc.o(i.FSMC_NORSRAMInit), (230 bytes).
    Removing stm32f10x_fsmc.o(i.FSMC_NORSRAMStructInit), (114 bytes).
    Removing stm32f10x_fsmc.o(i.FSMC_PCCARDCmd), (48 bytes).
    Removing stm32f10x_fsmc.o(i.FSMC_PCCARDDeInit), (40 bytes).
    Removing stm32f10x_fsmc.o(i.FSMC_PCCARDInit), (132 bytes).
    Removing stm32f10x_fsmc.o(i.FSMC_PCCARDStructInit), (60 bytes).
    Removing stm32f10x_gpio.o(.rev16_text), (4 bytes).
    Removing stm32f10x_gpio.o(.revsh_text), (4 bytes).
    Removing stm32f10x_gpio.o(.rrx_text), (6 bytes).
    Removing stm32f10x_gpio.o(i.GPIO_AFIODeInit), (20 bytes).
    Removing stm32f10x_gpio.o(i.GPIO_DeInit), (200 bytes).
    Removing stm32f10x_gpio.o(i.GPIO_ETH_MediaInterfaceConfig), (12 bytes).
    Removing stm32f10x_gpio.o(i.GPIO_EXTILineConfig), (64 bytes).
    Removing stm32f10x_gpio.o(i.GPIO_EventOutputCmd), (12 bytes).
    Removing stm32f10x_gpio.o(i.GPIO_EventOutputConfig), (32 bytes).
    Removing stm32f10x_gpio.o(i.GPIO_Init), (278 bytes).
    Removing stm32f10x_gpio.o(i.GPIO_PinLockConfig), (18 bytes).
    Removing stm32f10x_gpio.o(i.GPIO_PinRemapConfig), (144 bytes).
    Removing stm32f10x_gpio.o(i.GPIO_ReadInputData), (8 bytes).
    Removing stm32f10x_gpio.o(i.GPIO_ReadInputDataBit), (18 bytes).
    Removing stm32f10x_gpio.o(i.GPIO_ReadOutputData), (8 bytes).
    Removing stm32f10x_gpio.o(i.GPIO_ReadOutputDataBit), (18 bytes).
    Removing stm32f10x_gpio.o(i.GPIO_ResetBits), (4 bytes).
    Removing stm32f10x_gpio.o(i.GPIO_SetBits), (4 bytes).
    Removing stm32f10x_gpio.o(i.GPIO_StructInit), (16 bytes).
    Removing stm32f10x_gpio.o(i.GPIO_Write), (4 bytes).
    Removing stm32f10x_gpio.o(i.GPIO_WriteBit), (10 bytes).
    Removing stm32f10x_i2c.o(.rev16_text), (4 bytes).
    Removing stm32f10x_i2c.o(.revsh_text), (4 bytes).
    Removing stm32f10x_i2c.o(.rrx_text), (6 bytes).
    Removing stm32f10x_i2c.o(i.I2C_ARPCmd), (24 bytes).
    Removing stm32f10x_i2c.o(i.I2C_AcknowledgeConfig), (24 bytes).
    Removing stm32f10x_i2c.o(i.I2C_CalculatePEC), (24 bytes).
    Removing stm32f10x_i2c.o(i.I2C_CheckEvent), (42 bytes).
    Removing stm32f10x_i2c.o(i.I2C_ClearFlag), (12 bytes).
    Removing stm32f10x_i2c.o(i.I2C_ClearITPendingBit), (12 bytes).
    Removing stm32f10x_i2c.o(i.I2C_Cmd), (24 bytes).
    Removing stm32f10x_i2c.o(i.I2C_DMACmd), (24 bytes).
    Removing stm32f10x_i2c.o(i.I2C_DMALastTransferCmd), (24 bytes).
    Removing stm32f10x_i2c.o(i.I2C_DeInit), (56 bytes).
    Removing stm32f10x_i2c.o(i.I2C_DualAddressCmd), (24 bytes).
    Removing stm32f10x_i2c.o(i.I2C_FastModeDutyCycleConfig), (28 bytes).
    Removing stm32f10x_i2c.o(i.I2C_GeneralCallCmd), (24 bytes).
    Removing stm32f10x_i2c.o(i.I2C_GenerateSTART), (24 bytes).
    Removing stm32f10x_i2c.o(i.I2C_GenerateSTOP), (24 bytes).
    Removing stm32f10x_i2c.o(i.I2C_GetFlagStatus), (58 bytes).
    Removing stm32f10x_i2c.o(i.I2C_GetITStatus), (38 bytes).
    Removing stm32f10x_i2c.o(i.I2C_GetLastEvent), (26 bytes).
    Removing stm32f10x_i2c.o(i.I2C_GetPEC), (8 bytes).
    Removing stm32f10x_i2c.o(i.I2C_ITConfig), (18 bytes).
    Removing stm32f10x_i2c.o(i.I2C_Init), (236 bytes).
    Removing stm32f10x_i2c.o(i.I2C_NACKPositionConfig), (28 bytes).
    Removing stm32f10x_i2c.o(i.I2C_OwnAddress2Config), (22 bytes).
    Removing stm32f10x_i2c.o(i.I2C_PECPositionConfig), (28 bytes).
    Removing stm32f10x_i2c.o(i.I2C_ReadRegister), (22 bytes).
    Removing stm32f10x_i2c.o(i.I2C_ReceiveData), (8 bytes).
    Removing stm32f10x_i2c.o(i.I2C_SMBusAlertConfig), (28 bytes).
    Removing stm32f10x_i2c.o(i.I2C_Send7bitAddress), (18 bytes).
    Removing stm32f10x_i2c.o(i.I2C_SendData), (4 bytes).
    Removing stm32f10x_i2c.o(i.I2C_SoftwareResetCmd), (22 bytes).
    Removing stm32f10x_i2c.o(i.I2C_StretchClockCmd), (24 bytes).
    Removing stm32f10x_i2c.o(i.I2C_StructInit), (30 bytes).
    Removing stm32f10x_i2c.o(i.I2C_TransmitPEC), (24 bytes).
    Removing stm32f10x_iwdg.o(.rev16_text), (4 bytes).
    Removing stm32f10x_iwdg.o(.revsh_text), (4 bytes).
    Removing stm32f10x_iwdg.o(.rrx_text), (6 bytes).
    Removing stm32f10x_iwdg.o(i.IWDG_Enable), (16 bytes).
    Removing stm32f10x_iwdg.o(i.IWDG_GetFlagStatus), (24 bytes).
    Removing stm32f10x_iwdg.o(i.IWDG_ReloadCounter), (16 bytes).
    Removing stm32f10x_iwdg.o(i.IWDG_SetPrescaler), (12 bytes).
    Removing stm32f10x_iwdg.o(i.IWDG_SetReload), (12 bytes).
    Removing stm32f10x_iwdg.o(i.IWDG_WriteAccessCmd), (12 bytes).
    Removing stm32f10x_pwr.o(.rev16_text), (4 bytes).
    Removing stm32f10x_pwr.o(.revsh_text), (4 bytes).
    Removing stm32f10x_pwr.o(.rrx_text), (6 bytes).
    Removing stm32f10x_pwr.o(i.PWR_BackupAccessCmd), (12 bytes).
    Removing stm32f10x_pwr.o(i.PWR_ClearFlag), (20 bytes).
    Removing stm32f10x_pwr.o(i.PWR_DeInit), (22 bytes).
    Removing stm32f10x_pwr.o(i.PWR_EnterSTANDBYMode), (52 bytes).
    Removing stm32f10x_pwr.o(i.PWR_EnterSTOPMode), (64 bytes).
    Removing stm32f10x_pwr.o(i.PWR_GetFlagStatus), (24 bytes).
    Removing stm32f10x_pwr.o(i.PWR_PVDCmd), (12 bytes).
    Removing stm32f10x_pwr.o(i.PWR_PVDLevelConfig), (24 bytes).
    Removing stm32f10x_pwr.o(i.PWR_WakeUpPinCmd), (12 bytes).
    Removing stm32f10x_rcc.o(.rev16_text), (4 bytes).
    Removing stm32f10x_rcc.o(.revsh_text), (4 bytes).
    Removing stm32f10x_rcc.o(.rrx_text), (6 bytes).
    Removing stm32f10x_rcc.o(i.RCC_ADCCLKConfig), (24 bytes).
    Removing stm32f10x_rcc.o(i.RCC_AHBPeriphClockCmd), (32 bytes).
    Removing stm32f10x_rcc.o(i.RCC_APB1PeriphClockCmd), (32 bytes).
    Removing stm32f10x_rcc.o(i.RCC_APB1PeriphResetCmd), (32 bytes).
    Removing stm32f10x_rcc.o(i.RCC_APB2PeriphClockCmd), (32 bytes).
    Removing stm32f10x_rcc.o(i.RCC_APB2PeriphResetCmd), (32 bytes).
    Removing stm32f10x_rcc.o(i.RCC_AdjustHSICalibrationValue), (24 bytes).
    Removing stm32f10x_rcc.o(i.RCC_BackupResetCmd), (12 bytes).
    Removing stm32f10x_rcc.o(i.RCC_ClearFlag), (20 bytes).
    Removing stm32f10x_rcc.o(i.RCC_ClearITPendingBit), (12 bytes).
    Removing stm32f10x_rcc.o(i.RCC_ClockSecuritySystemCmd), (12 bytes).
    Removing stm32f10x_rcc.o(i.RCC_DeInit), (76 bytes).
    Removing stm32f10x_rcc.o(i.RCC_GetFlagStatus), (60 bytes).
    Removing stm32f10x_rcc.o(i.RCC_GetITStatus), (24 bytes).
    Removing stm32f10x_rcc.o(i.RCC_GetSYSCLKSource), (16 bytes).
    Removing stm32f10x_rcc.o(i.RCC_HCLKConfig), (24 bytes).
    Removing stm32f10x_rcc.o(i.RCC_HSEConfig), (76 bytes).
    Removing stm32f10x_rcc.o(i.RCC_HSICmd), (12 bytes).
    Removing stm32f10x_rcc.o(i.RCC_ITConfig), (32 bytes).
    Removing stm32f10x_rcc.o(i.RCC_LSEConfig), (52 bytes).
    Removing stm32f10x_rcc.o(i.RCC_LSICmd), (12 bytes).
    Removing stm32f10x_rcc.o(i.RCC_MCOConfig), (12 bytes).
    Removing stm32f10x_rcc.o(i.RCC_PCLK1Config), (24 bytes).
    Removing stm32f10x_rcc.o(i.RCC_PCLK2Config), (24 bytes).
    Removing stm32f10x_rcc.o(i.RCC_PLLCmd), (12 bytes).
    Removing stm32f10x_rcc.o(i.RCC_PLLConfig), (28 bytes).
    Removing stm32f10x_rcc.o(i.RCC_RTCCLKCmd), (12 bytes).
    Removing stm32f10x_rcc.o(i.RCC_RTCCLKConfig), (16 bytes).
    Removing stm32f10x_rcc.o(i.RCC_SYSCLKConfig), (24 bytes).
    Removing stm32f10x_rcc.o(i.RCC_USBCLKConfig), (12 bytes).
    Removing stm32f10x_rcc.o(i.RCC_WaitForHSEStartUp), (56 bytes).
    Removing stm32f10x_rtc.o(.rev16_text), (4 bytes).
    Removing stm32f10x_rtc.o(.revsh_text), (4 bytes).
    Removing stm32f10x_rtc.o(.rrx_text), (6 bytes).
    Removing stm32f10x_rtc.o(i.RTC_ClearFlag), (16 bytes).
    Removing stm32f10x_rtc.o(i.RTC_ClearITPendingBit), (16 bytes).
    Removing stm32f10x_rtc.o(i.RTC_EnterConfigMode), (20 bytes).
    Removing stm32f10x_rtc.o(i.RTC_ExitConfigMode), (20 bytes).
    Removing stm32f10x_rtc.o(i.RTC_GetCounter), (20 bytes).
    Removing stm32f10x_rtc.o(i.RTC_GetDivider), (24 bytes).
    Removing stm32f10x_rtc.o(i.RTC_GetFlagStatus), (24 bytes).
    Removing stm32f10x_rtc.o(i.RTC_GetITStatus), (36 bytes).
    Removing stm32f10x_rtc.o(i.RTC_ITConfig), (32 bytes).
    Removing stm32f10x_rtc.o(i.RTC_SetAlarm), (28 bytes).
    Removing stm32f10x_rtc.o(i.RTC_SetCounter), (28 bytes).
    Removing stm32f10x_rtc.o(i.RTC_SetPrescaler), (32 bytes).
    Removing stm32f10x_rtc.o(i.RTC_WaitForLastTask), (20 bytes).
    Removing stm32f10x_rtc.o(i.RTC_WaitForSynchro), (36 bytes).
    Removing stm32f10x_sdio.o(.rev16_text), (4 bytes).
    Removing stm32f10x_sdio.o(.revsh_text), (4 bytes).
    Removing stm32f10x_sdio.o(.rrx_text), (6 bytes).
    Removing stm32f10x_sdio.o(i.SDIO_CEATAITCmd), (16 bytes).
    Removing stm32f10x_sdio.o(i.SDIO_ClearFlag), (12 bytes).
    Removing stm32f10x_sdio.o(i.SDIO_ClearITPendingBit), (12 bytes).
    Removing stm32f10x_sdio.o(i.SDIO_ClockCmd), (12 bytes).
    Removing stm32f10x_sdio.o(i.SDIO_CmdStructInit), (14 bytes).
    Removing stm32f10x_sdio.o(i.SDIO_CommandCompletionCmd), (12 bytes).
    Removing stm32f10x_sdio.o(i.SDIO_DMACmd), (12 bytes).
    Removing stm32f10x_sdio.o(i.SDIO_DataConfig), (48 bytes).
    Removing stm32f10x_sdio.o(i.SDIO_DataStructInit), (20 bytes).
    Removing stm32f10x_sdio.o(i.SDIO_DeInit), (36 bytes).
    Removing stm32f10x_sdio.o(i.SDIO_GetCommandResponse), (12 bytes).
    Removing stm32f10x_sdio.o(i.SDIO_GetDataCounter), (12 bytes).
    Removing stm32f10x_sdio.o(i.SDIO_GetFIFOCount), (12 bytes).
    Removing stm32f10x_sdio.o(i.SDIO_GetFlagStatus), (24 bytes).
    Removing stm32f10x_sdio.o(i.SDIO_GetITStatus), (24 bytes).
    Removing stm32f10x_sdio.o(i.SDIO_GetPowerState), (16 bytes).
    Removing stm32f10x_sdio.o(i.SDIO_GetResponse), (24 bytes).
    Removing stm32f10x_sdio.o(i.SDIO_ITConfig), (32 bytes).
    Removing stm32f10x_sdio.o(i.SDIO_Init), (48 bytes).
    Removing stm32f10x_sdio.o(i.SDIO_ReadData), (12 bytes).
    Removing stm32f10x_sdio.o(i.SDIO_SendCEATACmd), (12 bytes).
    Removing stm32f10x_sdio.o(i.SDIO_SendCommand), (44 bytes).
    Removing stm32f10x_sdio.o(i.SDIO_SendSDIOSuspendCmd), (12 bytes).
    Removing stm32f10x_sdio.o(i.SDIO_SetPowerState), (28 bytes).
    Removing stm32f10x_sdio.o(i.SDIO_SetSDIOOperation), (12 bytes).
    Removing stm32f10x_sdio.o(i.SDIO_SetSDIOReadWaitMode), (12 bytes).
    Removing stm32f10x_sdio.o(i.SDIO_StartSDIOReadWait), (12 bytes).
    Removing stm32f10x_sdio.o(i.SDIO_StopSDIOReadWait), (12 bytes).
    Removing stm32f10x_sdio.o(i.SDIO_StructInit), (16 bytes).
    Removing stm32f10x_sdio.o(i.SDIO_WriteData), (12 bytes).
    Removing stm32f10x_spi.o(.rev16_text), (4 bytes).
    Removing stm32f10x_spi.o(.revsh_text), (4 bytes).
    Removing stm32f10x_spi.o(.rrx_text), (6 bytes).
    Removing stm32f10x_spi.o(i.I2S_Cmd), (24 bytes).
    Removing stm32f10x_spi.o(i.I2S_Init), (232 bytes).
    Removing stm32f10x_spi.o(i.I2S_StructInit), (20 bytes).
    Removing stm32f10x_spi.o(i.SPI_BiDirectionalLineConfig), (28 bytes).
    Removing stm32f10x_spi.o(i.SPI_CalculateCRC), (24 bytes).
    Removing stm32f10x_spi.o(i.SPI_Cmd), (24 bytes).
    Removing stm32f10x_spi.o(i.SPI_DataSizeConfig), (18 bytes).
    Removing stm32f10x_spi.o(i.SPI_GetCRC), (16 bytes).
    Removing stm32f10x_spi.o(i.SPI_GetCRCPolynomial), (6 bytes).
    Removing stm32f10x_spi.o(i.SPI_I2S_ClearFlag), (6 bytes).
    Removing stm32f10x_spi.o(i.SPI_I2S_ClearITPendingBit), (20 bytes).
    Removing stm32f10x_spi.o(i.SPI_I2S_DMACmd), (18 bytes).
    Removing stm32f10x_spi.o(i.SPI_I2S_DeInit), (88 bytes).
    Removing stm32f10x_spi.o(i.SPI_I2S_GetFlagStatus), (18 bytes).
    Removing stm32f10x_spi.o(i.SPI_I2S_GetITStatus), (52 bytes).
    Removing stm32f10x_spi.o(i.SPI_I2S_ITConfig), (32 bytes).
    Removing stm32f10x_spi.o(i.SPI_I2S_ReceiveData), (6 bytes).
    Removing stm32f10x_spi.o(i.SPI_I2S_SendData), (4 bytes).
    Removing stm32f10x_spi.o(i.SPI_Init), (60 bytes).
    Removing stm32f10x_spi.o(i.SPI_NSSInternalSoftwareConfig), (30 bytes).
    Removing stm32f10x_spi.o(i.SPI_SSOutputCmd), (24 bytes).
    Removing stm32f10x_spi.o(i.SPI_StructInit), (24 bytes).
    Removing stm32f10x_spi.o(i.SPI_TransmitCRC), (10 bytes).
    Removing stm32f10x_tim.o(.rev16_text), (4 bytes).
    Removing stm32f10x_tim.o(.revsh_text), (4 bytes).
    Removing stm32f10x_tim.o(.rrx_text), (6 bytes).
    Removing stm32f10x_tim.o(i.TI1_Config), (128 bytes).
    Removing stm32f10x_tim.o(i.TI2_Config), (152 bytes).
    Removing stm32f10x_tim.o(i.TI3_Config), (144 bytes).
    Removing stm32f10x_tim.o(i.TI4_Config), (152 bytes).
    Removing stm32f10x_tim.o(i.TIM_ARRPreloadConfig), (24 bytes).
    Removing stm32f10x_tim.o(i.TIM_BDTRConfig), (32 bytes).
    Removing stm32f10x_tim.o(i.TIM_BDTRStructInit), (18 bytes).
    Removing stm32f10x_tim.o(i.TIM_CCPreloadControl), (24 bytes).
    Removing stm32f10x_tim.o(i.TIM_CCxCmd), (30 bytes).
    Removing stm32f10x_tim.o(i.TIM_CCxNCmd), (30 bytes).
    Removing stm32f10x_tim.o(i.TIM_ClearFlag), (6 bytes).
    Removing stm32f10x_tim.o(i.TIM_ClearOC1Ref), (18 bytes).
    Removing stm32f10x_tim.o(i.TIM_ClearOC2Ref), (24 bytes).
    Removing stm32f10x_tim.o(i.TIM_ClearOC3Ref), (18 bytes).
    Removing stm32f10x_tim.o(i.TIM_ClearOC4Ref), (24 bytes).
    Removing stm32f10x_tim.o(i.TIM_CounterModeConfig), (18 bytes).
    Removing stm32f10x_tim.o(i.TIM_CtrlPWMOutputs), (30 bytes).
    Removing stm32f10x_tim.o(i.TIM_DMACmd), (18 bytes).
    Removing stm32f10x_tim.o(i.TIM_DMAConfig), (10 bytes).
    Removing stm32f10x_tim.o(i.TIM_DeInit), (488 bytes).
    Removing stm32f10x_tim.o(i.TIM_ETRClockMode1Config), (54 bytes).
    Removing stm32f10x_tim.o(i.TIM_ETRClockMode2Config), (32 bytes).
    Removing stm32f10x_tim.o(i.TIM_ETRConfig), (28 bytes).
    Removing stm32f10x_tim.o(i.TIM_EncoderInterfaceConfig), (66 bytes).
    Removing stm32f10x_tim.o(i.TIM_ForcedOC1Config), (18 bytes).
    Removing stm32f10x_tim.o(i.TIM_ForcedOC2Config), (26 bytes).
    Removing stm32f10x_tim.o(i.TIM_ForcedOC3Config), (18 bytes).
    Removing stm32f10x_tim.o(i.TIM_ForcedOC4Config), (26 bytes).
    Removing stm32f10x_tim.o(i.TIM_GenerateEvent), (4 bytes).
    Removing stm32f10x_tim.o(i.TIM_GetCapture1), (6 bytes).
    Removing stm32f10x_tim.o(i.TIM_GetCapture2), (6 bytes).
    Removing stm32f10x_tim.o(i.TIM_GetCapture3), (6 bytes).
    Removing stm32f10x_tim.o(i.TIM_GetCapture4), (8 bytes).
    Removing stm32f10x_tim.o(i.TIM_GetCounter), (6 bytes).
    Removing stm32f10x_tim.o(i.TIM_GetFlagStatus), (18 bytes).
    Removing stm32f10x_tim.o(i.TIM_GetPrescaler), (6 bytes).
    Removing stm32f10x_tim.o(i.TIM_ICInit), (172 bytes).
    Removing stm32f10x_tim.o(i.TIM_ICStructInit), (18 bytes).
    Removing stm32f10x_tim.o(i.TIM_ITConfig), (18 bytes).
    Removing stm32f10x_tim.o(i.TIM_ITRxExternalClockConfig), (24 bytes).
    Removing stm32f10x_tim.o(i.TIM_InternalClockConfig), (12 bytes).
    Removing stm32f10x_tim.o(i.TIM_OC1FastConfig), (18 bytes).
    Removing stm32f10x_tim.o(i.TIM_OC1Init), (152 bytes).
    Removing stm32f10x_tim.o(i.TIM_OC1NPolarityConfig), (18 bytes).
    Removing stm32f10x_tim.o(i.TIM_OC1PolarityConfig), (18 bytes).
    Removing stm32f10x_tim.o(i.TIM_OC1PreloadConfig), (18 bytes).
    Removing stm32f10x_tim.o(i.TIM_OC2FastConfig), (26 bytes).
    Removing stm32f10x_tim.o(i.TIM_OC2Init), (164 bytes).
    Removing stm32f10x_tim.o(i.TIM_OC2NPolarityConfig), (26 bytes).
    Removing stm32f10x_tim.o(i.TIM_OC2PolarityConfig), (26 bytes).
    Removing stm32f10x_tim.o(i.TIM_OC2PreloadConfig), (26 bytes).
    Removing stm32f10x_tim.o(i.TIM_OC3FastConfig), (18 bytes).
    Removing stm32f10x_tim.o(i.TIM_OC3Init), (160 bytes).
    Removing stm32f10x_tim.o(i.TIM_OC3NPolarityConfig), (26 bytes).
    Removing stm32f10x_tim.o(i.TIM_OC3PolarityConfig), (26 bytes).
    Removing stm32f10x_tim.o(i.TIM_OC3PreloadConfig), (18 bytes).
    Removing stm32f10x_tim.o(i.TIM_OC4FastConfig), (26 bytes).
    Removing stm32f10x_tim.o(i.TIM_OC4Init), (124 bytes).
    Removing stm32f10x_tim.o(i.TIM_OC4PolarityConfig), (26 bytes).
    Removing stm32f10x_tim.o(i.TIM_OC4PreloadConfig), (26 bytes).
    Removing stm32f10x_tim.o(i.TIM_OCStructInit), (20 bytes).
    Removing stm32f10x_tim.o(i.TIM_PWMIConfig), (124 bytes).
    Removing stm32f10x_tim.o(i.TIM_PrescalerConfig), (6 bytes).
    Removing stm32f10x_tim.o(i.TIM_SelectCCDMA), (24 bytes).
    Removing stm32f10x_tim.o(i.TIM_SelectCOM), (24 bytes).
    Removing stm32f10x_tim.o(i.TIM_SelectHallSensor), (24 bytes).
    Removing stm32f10x_tim.o(i.TIM_SelectInputTrigger), (18 bytes).
    Removing stm32f10x_tim.o(i.TIM_SelectMasterSlaveMode), (18 bytes).
    Removing stm32f10x_tim.o(i.TIM_SelectOCxM), (82 bytes).
    Removing stm32f10x_tim.o(i.TIM_SelectOnePulseMode), (18 bytes).
    Removing stm32f10x_tim.o(i.TIM_SelectOutputTrigger), (18 bytes).
    Removing stm32f10x_tim.o(i.TIM_SelectSlaveMode), (18 bytes).
    Removing stm32f10x_tim.o(i.TIM_SetAutoreload), (4 bytes).
    Removing stm32f10x_tim.o(i.TIM_SetClockDivision), (18 bytes).
    Removing stm32f10x_tim.o(i.TIM_SetCompare1), (4 bytes).
    Removing stm32f10x_tim.o(i.TIM_SetCompare2), (4 bytes).
    Removing stm32f10x_tim.o(i.TIM_SetCompare3), (4 bytes).
    Removing stm32f10x_tim.o(i.TIM_SetCompare4), (6 bytes).
    Removing stm32f10x_tim.o(i.TIM_SetCounter), (4 bytes).
    Removing stm32f10x_tim.o(i.TIM_SetIC1Prescaler), (18 bytes).
    Removing stm32f10x_tim.o(i.TIM_SetIC2Prescaler), (26 bytes).
    Removing stm32f10x_tim.o(i.TIM_SetIC3Prescaler), (18 bytes).
    Removing stm32f10x_tim.o(i.TIM_SetIC4Prescaler), (26 bytes).
    Removing stm32f10x_tim.o(i.TIM_TIxExternalClockConfig), (62 bytes).
    Removing stm32f10x_tim.o(i.TIM_TimeBaseInit), (164 bytes).
    Removing stm32f10x_tim.o(i.TIM_TimeBaseStructInit), (18 bytes).
    Removing stm32f10x_tim.o(i.TIM_UpdateDisableConfig), (24 bytes).
    Removing stm32f10x_tim.o(i.TIM_UpdateRequestConfig), (24 bytes).
    Removing stm32f10x_usart.o(.rev16_text), (4 bytes).
    Removing stm32f10x_usart.o(.revsh_text), (4 bytes).
    Removing stm32f10x_usart.o(.rrx_text), (6 bytes).
    Removing stm32f10x_usart.o(i.USART_ClearFlag), (18 bytes).
    Removing stm32f10x_usart.o(i.USART_ClearITPendingBit), (30 bytes).
    Removing stm32f10x_usart.o(i.USART_ClockInit), (34 bytes).
    Removing stm32f10x_usart.o(i.USART_ClockStructInit), (12 bytes).
    Removing stm32f10x_usart.o(i.USART_Cmd), (24 bytes).
    Removing stm32f10x_usart.o(i.USART_DMACmd), (18 bytes).
    Removing stm32f10x_usart.o(i.USART_DeInit), (156 bytes).
    Removing stm32f10x_usart.o(i.USART_GetFlagStatus), (26 bytes).
    Removing stm32f10x_usart.o(i.USART_GetITStatus), (84 bytes).
    Removing stm32f10x_usart.o(i.USART_HalfDuplexCmd), (24 bytes).
    Removing stm32f10x_usart.o(i.USART_ITConfig), (74 bytes).
    Removing stm32f10x_usart.o(i.USART_Init), (216 bytes).
    Removing stm32f10x_usart.o(i.USART_IrDACmd), (24 bytes).
    Removing stm32f10x_usart.o(i.USART_IrDAConfig), (18 bytes).
    Removing stm32f10x_usart.o(i.USART_LINBreakDetectLengthConfig), (18 bytes).
    Removing stm32f10x_usart.o(i.USART_LINCmd), (24 bytes).
    Removing stm32f10x_usart.o(i.USART_OneBitMethodCmd), (24 bytes).
    Removing stm32f10x_usart.o(i.USART_OverSampling8Cmd), (22 bytes).
    Removing stm32f10x_usart.o(i.USART_ReceiveData), (10 bytes).
    Removing stm32f10x_usart.o(i.USART_ReceiverWakeUpCmd), (24 bytes).
    Removing stm32f10x_usart.o(i.USART_SendBreak), (10 bytes).
    Removing stm32f10x_usart.o(i.USART_SendData), (8 bytes).
    Removing stm32f10x_usart.o(i.USART_SetAddress), (18 bytes).
    Removing stm32f10x_usart.o(i.USART_SetGuardTime), (16 bytes).
    Removing stm32f10x_usart.o(i.USART_SetPrescaler), (16 bytes).
    Removing stm32f10x_usart.o(i.USART_SmartCardCmd), (24 bytes).
    Removing stm32f10x_usart.o(i.USART_SmartCardNACKCmd), (24 bytes).
    Removing stm32f10x_usart.o(i.USART_StructInit), (24 bytes).
    Removing stm32f10x_usart.o(i.USART_WakeUpConfig), (18 bytes).
    Removing stm32f10x_wwdg.o(.rev16_text), (4 bytes).
    Removing stm32f10x_wwdg.o(.revsh_text), (4 bytes).
    Removing stm32f10x_wwdg.o(.rrx_text), (6 bytes).
    Removing stm32f10x_wwdg.o(i.WWDG_ClearFlag), (12 bytes).
    Removing stm32f10x_wwdg.o(i.WWDG_DeInit), (22 bytes).
    Removing stm32f10x_wwdg.o(i.WWDG_Enable), (16 bytes).
    Removing stm32f10x_wwdg.o(i.WWDG_EnableIT), (12 bytes).
    Removing stm32f10x_wwdg.o(i.WWDG_GetFlagStatus), (12 bytes).
    Removing stm32f10x_wwdg.o(i.WWDG_SetCounter), (16 bytes).
    Removing stm32f10x_wwdg.o(i.WWDG_SetPrescaler), (24 bytes).
    Removing stm32f10x_wwdg.o(i.WWDG_SetWindowValue), (40 bytes).
    Removing system_stm32f10x.o(.rev16_text), (4 bytes).
    Removing system_stm32f10x.o(.revsh_text), (4 bytes).
    Removing system_stm32f10x.o(.rrx_text), (6 bytes).
    Removing system_stm32f10x.o(i.SystemCoreClockUpdate), (164 bytes).
    Removing system_stm32f10x.o(.data), (20 bytes).
    Removing USART_DEBUG.o(.rev16_text), (4 bytes).
    Removing USART_DEBUG.o(.revsh_text), (4 bytes).
    Removing USART_DEBUG.o(.rrx_text), (6 bytes).
    Removing USART_DEBUG.o(i.fgetc), (32 bytes).
    Removing USART_DEBUG.o(i.fputc), (36 bytes).
    Removing LCD_12864_Parallel.o(.rev16_text), (4 bytes).
    Removing LCD_12864_Parallel.o(.revsh_text), (4 bytes).
    Removing LCD_12864_Parallel.o(.rrx_text), (6 bytes).
    Removing LCD_12864_Parallel.o(i._ZN18LCD_12864_Parallel10Check_BusyEv), (92 bytes).
    Removing LCD_12864_Parallel.o(i._ZN18LCD_12864_Parallel10Draw_PointEhhh), (354 bytes).
    Removing LCD_12864_Parallel.o(i._ZN18LCD_12864_Parallel10Read_GDRAMEhh), (66 bytes).
    Removing LCD_12864_Parallel.o(i._ZN18LCD_12864_Parallel10Write_DataEh), (66 bytes).
    Removing LCD_12864_Parallel.o(i._ZN18LCD_12864_Parallel11Clear_DDRAMEv), (26 bytes).
    Removing LCD_12864_Parallel.o(i._ZN18LCD_12864_Parallel11Clear_GDRAMEv), (162 bytes).
    Removing LCD_12864_Parallel.o(i._ZN18LCD_12864_Parallel11Read_StatusEv), (6 bytes).
    Removing LCD_12864_Parallel.o(i._ZN18LCD_12864_Parallel11Show_StringEPhtt), (178 bytes).
    Removing LCD_12864_Parallel.o(i._ZN18LCD_12864_Parallel12Receive_ByteEv), (6 bytes).
    Removing LCD_12864_Parallel.o(i._ZN18LCD_12864_Parallel12Set_GDRAMaddEhh), (38 bytes).
    Removing LCD_12864_Parallel.o(i._ZN18LCD_12864_Parallel13Display_CGRAMEhhh), (50 bytes).
    Removing LCD_12864_Parallel.o(i._ZN18LCD_12864_Parallel13Display_ImageEPh), (162 bytes).
    Removing LCD_12864_Parallel.o(i._ZN18LCD_12864_Parallel14Draw_RectangleEhhhhh), (1904 bytes).
    Removing LCD_12864_Parallel.o(i._ZN18LCD_12864_Parallel16Draw_Rectangle_1Ehhhhh), (60 bytes).
    Removing LCD_12864_Parallel.o(i._ZN18LCD_12864_Parallel3PosEhh), (56 bytes).
    Removing LCD_12864_Parallel.o(i._ZN18LCD_12864_Parallel4InitEv), (74 bytes).
    Removing LCD_12864_Parallel.o(i._ZN18LCD_12864_Parallel6UpdateE24LCD_12864_Param_Parallel), (38 bytes).
    Removing LCD_12864_Parallel.o(i._ZN18LCD_12864_Parallel8Pin_InitEv), (160 bytes).
    Removing LCD_12864_Parallel.o(i._ZN18LCD_12864_Parallel9Read_DataEv), (88 bytes).
    Removing LCD_12864_Parallel.o(i._ZN18LCD_12864_Parallel9Send_ByteEh), (2 bytes).
    Removing LCD_12864_Parallel.o(i._ZN18LCD_12864_Parallel9Set_CGRAMEhPh), (108 bytes).
    Removing LCD_12864_Parallel.o(i._ZN18LCD_12864_Parallel9Set_ParamE24LCD_12864_Param_Parallel), (22 bytes).
    Removing LCD_12864_Parallel.o(i._ZN18LCD_12864_Parallel9Write_CmdEh), (66 bytes).
    Removing LCD_12864_Parallel.o(i._ZN18LCD_12864_ParallelC1E24LCD_12864_Param_Parallel), (96 bytes).
    Removing LCD_12864_Parallel.o(i._ZN18LCD_12864_ParallelC1Ev), (72 bytes).
    Removing LCD_12864_Parallel.o(.ARM.exidx), (8 bytes).
    Removing LCD_12864_Parallel.o(.ARM.exidx), (8 bytes).
    Removing LCD_12864_Parallel.o(.ARM.exidx), (8 bytes).
    Removing LCD_12864_Parallel.o(.ARM.exidx), (8 bytes).
    Removing LCD_12864_Parallel.o(.ARM.exidx), (8 bytes).
    Removing LCD_12864_Parallel.o(.ARM.exidx), (8 bytes).
    Removing LCD_12864_Parallel.o(.ARM.exidx), (8 bytes).
    Removing LCD_12864_Parallel.o(.ARM.exidx), (8 bytes).
    Removing LCD_12864_Parallel.o(.ARM.exidx), (8 bytes).
    Removing LCD_12864_Parallel.o(.ARM.exidx), (8 bytes).
    Removing LCD_12864_Parallel.o(.ARM.exidx), (8 bytes).
    Removing LCD_12864_Parallel.o(.ARM.exidx), (8 bytes).
    Removing LCD_12864_Parallel.o(.ARM.exidx), (8 bytes).
    Removing LCD_12864_Parallel.o(.ARM.exidx), (8 bytes).
    Removing LCD_12864_Parallel.o(.ARM.exidx), (8 bytes).
    Removing LCD_12864_Parallel.o(.ARM.exidx), (8 bytes).
    Removing LCD_12864_Parallel.o(.ARM.exidx), (8 bytes).
    Removing LCD_12864_Parallel.o(.ARM.exidx), (8 bytes).
    Removing LCD_12864_Parallel.o(.ARM.exidx), (8 bytes).
    Removing LCD_12864_Parallel.o(.ARM.exidx), (8 bytes).
    Removing LCD_12864_Parallel.o(.ARM.exidx), (8 bytes).
    Removing LCD_12864_Parallel.o(.ARM.exidx), (8 bytes).
    Removing LCD_12864_Parallel.o(.ARM.exidx), (8 bytes).
    Removing LCD_12864_Parallel.o(.ARM.exidx), (8 bytes).
    Removing LCD_12864_Parallel.o(.ARM.exidx), (8 bytes).
    Removing LCD_12864_Serial.o(.rev16_text), (4 bytes).
    Removing LCD_12864_Serial.o(.revsh_text), (4 bytes).
    Removing LCD_12864_Serial.o(.rrx_text), (6 bytes).
    Removing LCD_12864_Serial.o(i._ZN16LCD_12864_Serial10Check_BusyEv), (24 bytes).
    Removing LCD_12864_Serial.o(i._ZN16LCD_12864_Serial10Draw_PointEhhh), (2 bytes).
    Removing LCD_12864_Serial.o(i._ZN16LCD_12864_Serial10Read_GDRAMEhh), (2 bytes).
    Removing LCD_12864_Serial.o(i._ZN16LCD_12864_Serial10Write_DataEh), (72 bytes).
    Removing LCD_12864_Serial.o(i._ZN16LCD_12864_Serial11Clear_DDRAMEv), (26 bytes).
    Removing LCD_12864_Serial.o(i._ZN16LCD_12864_Serial11Clear_GDRAMEv), (152 bytes).
    Removing LCD_12864_Serial.o(i._ZN16LCD_12864_Serial11Read_StatusEv), (24 bytes).
    Removing LCD_12864_Serial.o(i._ZN16LCD_12864_Serial11Show_StringEPhtt), (178 bytes).
    Removing LCD_12864_Serial.o(i._ZN16LCD_12864_Serial12Receive_ByteEv), (184 bytes).
    Removing LCD_12864_Serial.o(i._ZN16LCD_12864_Serial12Set_GDRAMaddEhh), (38 bytes).
    Removing LCD_12864_Serial.o(i._ZN16LCD_12864_Serial13Display_CGRAMEhhh), (50 bytes).
    Removing LCD_12864_Serial.o(i._ZN16LCD_12864_Serial13Display_ImageEPh), (162 bytes).
    Removing LCD_12864_Serial.o(i._ZN16LCD_12864_Serial14Draw_RectangleEhhhhh), (8 bytes).
    Removing LCD_12864_Serial.o(i._ZN16LCD_12864_Serial16Draw_Rectangle_1Ehhhhh), (8 bytes).
    Removing LCD_12864_Serial.o(i._ZN16LCD_12864_Serial3PosEhh), (56 bytes).
    Removing LCD_12864_Serial.o(i._ZN16LCD_12864_Serial4InitEv), (74 bytes).
    Removing LCD_12864_Serial.o(i._ZN16LCD_12864_Serial6UpdateE22LCD_12864_Param_Serial), (38 bytes).
    Removing LCD_12864_Serial.o(i._ZN16LCD_12864_Serial8Pin_InitEv), (120 bytes).
    Removing LCD_12864_Serial.o(i._ZN16LCD_12864_Serial9Read_DataEv), (24 bytes).
    Removing LCD_12864_Serial.o(i._ZN16LCD_12864_Serial9Send_ByteEh), (88 bytes).
    Removing LCD_12864_Serial.o(i._ZN16LCD_12864_Serial9Set_CGRAMEhPh), (108 bytes).
    Removing LCD_12864_Serial.o(i._ZN16LCD_12864_Serial9Set_ParamE22LCD_12864_Param_Serial), (22 bytes).
    Removing LCD_12864_Serial.o(i._ZN16LCD_12864_Serial9Write_CmdEh), (72 bytes).
    Removing LCD_12864_Serial.o(i._ZN16LCD_12864_SerialC1E22LCD_12864_Param_Serial), (84 bytes).
    Removing LCD_12864_Serial.o(i._ZN16LCD_12864_SerialC1Ev), (60 bytes).
    Removing LCD_12864_Serial.o(.ARM.exidx), (8 bytes).
    Removing LCD_12864_Serial.o(.ARM.exidx), (8 bytes).
    Removing LCD_12864_Serial.o(.ARM.exidx), (8 bytes).
    Removing LCD_12864_Serial.o(.ARM.exidx), (8 bytes).
    Removing LCD_12864_Serial.o(.ARM.exidx), (8 bytes).
    Removing LCD_12864_Serial.o(.ARM.exidx), (8 bytes).
    Removing LCD_12864_Serial.o(.ARM.exidx), (8 bytes).
    Removing LCD_12864_Serial.o(.ARM.exidx), (8 bytes).
    Removing LCD_12864_Serial.o(.ARM.exidx), (8 bytes).
    Removing LCD_12864_Serial.o(.ARM.exidx), (8 bytes).
    Removing LCD_12864_Serial.o(.ARM.exidx), (8 bytes).
    Removing LCD_12864_Serial.o(.ARM.exidx), (8 bytes).
    Removing LCD_12864_Serial.o(.ARM.exidx), (8 bytes).
    Removing LCD_12864_Serial.o(.ARM.exidx), (8 bytes).
    Removing LCD_12864_Serial.o(.ARM.exidx), (8 bytes).
    Removing LCD_12864_Serial.o(.ARM.exidx), (8 bytes).
    Removing LCD_12864_Serial.o(.ARM.exidx), (8 bytes).
    Removing LCD_12864_Serial.o(.ARM.exidx), (8 bytes).
    Removing LCD_12864_Serial.o(.ARM.exidx), (8 bytes).
    Removing LCD_12864_Serial.o(.ARM.exidx), (8 bytes).
    Removing LCD_12864_Serial.o(.ARM.exidx), (8 bytes).
    Removing LCD_12864_Serial.o(.ARM.exidx), (8 bytes).
    Removing LCD_12864_Serial.o(.ARM.exidx), (8 bytes).
    Removing LCD_12864_Serial.o(.ARM.exidx), (8 bytes).
    Removing LCD_12864_Serial.o(.ARM.exidx), (8 bytes).
    Removing AT24C02.o(.rev16_text), (4 bytes).
    Removing AT24C02.o(.revsh_text), (4 bytes).
    Removing AT24C02.o(.rrx_text), (6 bytes).
    Removing AT24C02.o(i._ZN7AT24C0210Write_ByteEhh), (408 bytes).
    Removing AT24C02.o(i._ZN7AT24C0210Write_PageEhPhh), (432 bytes).
    Removing AT24C02.o(i._ZN7AT24C0211Read_BufferEhPhh), (588 bytes).
    Removing AT24C02.o(i._ZN7AT24C0212Write_BufferEhPhh), (86 bytes).
    Removing AT24C02.o(i._ZN7AT24C0218Check_AT24C02_BusyEv), (260 bytes).
    Removing AT24C02.o(i._ZN7AT24C0218Set_AT24C02x_ParamE13AT24C02_Param), (12 bytes).
    Removing AT24C02.o(i._ZN7AT24C024InitEv), (60 bytes).
    Removing AT24C02.o(i._ZN7AT24C026UpdateE13AT24C02_Param), (22 bytes).
    Removing AT24C02.o(i._ZN7AT24C02C1E13AT24C02_Param), (18 bytes).
    Removing AT24C02.o(i._ZN7AT24C02C1Ev), (2 bytes).
    Removing AT24C02.o(i._ZN7AT24C02D1Ev), (2 bytes).
    Removing AT24C02.o(.ARM.exidx), (8 bytes).
    Removing AT24C02.o(.ARM.exidx), (8 bytes).
    Removing AT24C02.o(.ARM.exidx), (8 bytes).
    Removing AT24C02.o(.ARM.exidx), (8 bytes).
    Removing AT24C02.o(.ARM.exidx), (8 bytes).
    Removing AT24C02.o(.ARM.exidx), (8 bytes).
    Removing AT24C02.o(.ARM.exidx), (8 bytes).
    Removing AT24C02.o(.ARM.exidx), (8 bytes).
    Removing AT24C02.o(.ARM.exidx), (8 bytes).
    Removing AT24C02.o(.ARM.exidx), (8 bytes).
    Removing AT24C02.o(.ARM.exidx), (8 bytes).
    Removing AT24C02.o(.conststring), (314 bytes).
    Removing Buzzer.o(.rev16_text), (4 bytes).
    Removing Buzzer.o(.revsh_text), (4 bytes).
    Removing Buzzer.o(.rrx_text), (6 bytes).
    Removing Buzzer.o(i._Z14SysTick_Configj), (84 bytes).
    Removing Buzzer.o(i._ZN6Buzzer15BEEP_HZ_CONVERTEj), (16 bytes).
    Removing Buzzer.o(i._ZN6Buzzer16Systick_Delay_msEj), (68 bytes).
    Removing Buzzer.o(i._ZN6Buzzer21Systick_Special_DelayEjj), (82 bytes).
    Removing Buzzer.o(i._ZN6Buzzer3runEv), (30 bytes).
    Removing Buzzer.o(i._ZN6Buzzer4InitEv), (12 bytes).
    Removing Buzzer.o(i._ZN6Buzzer5MusicEjdh), (172 bytes).
    Removing Buzzer.o(i._ZN6BuzzerC1E4GPIO), (26 bytes).
    Removing Buzzer.o(i._ZN6BuzzerC1Ev), (16 bytes).
    Removing Buzzer.o(i._ZN6BuzzerD1Ev), (16 bytes).
    Removing Buzzer.o(.ARM.exidx), (8 bytes).
    Removing Buzzer.o(.ARM.exidx), (8 bytes).
    Removing Buzzer.o(.ARM.exidx), (8 bytes).
    Removing Buzzer.o(.ARM.exidx), (8 bytes).
    Removing Buzzer.o(.ARM.exidx), (8 bytes).
    Removing Buzzer.o(.ARM.exidx), (8 bytes).
    Removing Buzzer.o(.ARM.exidx), (8 bytes).
    Removing Buzzer.o(.ARM.exidx), (8 bytes).
    Removing Buzzer.o(.ARM.exidx), (8 bytes).
    Removing Buzzer.o(.ARM.exidx), (8 bytes).
    Removing GPIO.o(.rev16_text), (4 bytes).
    Removing GPIO.o(.revsh_text), (4 bytes).
    Removing GPIO.o(.rrx_text), (6 bytes).
    Removing GPIO.o(i._ZN4GPIO12Set_GPIO_PinEt), (4 bytes).
    Removing GPIO.o(i._ZN4GPIO13Get_Input_PinEv), (22 bytes).
    Removing GPIO.o(i._ZN4GPIO14Get_Input_PortEv), (12 bytes).
    Removing GPIO.o(i._ZN4GPIO14Get_Output_PinEv), (22 bytes).
    Removing GPIO.o(i._ZN4GPIO15Get_Output_PortEv), (12 bytes).
    Removing GPIO.o(i._ZN4GPIO21Get_GPIOInitStructureEv), (10 bytes).
    Removing GPIO.o(i._ZN4GPIO21Set_GPIOInitStructureE16GPIO_InitTypeDef), (8 bytes).
    Removing GPIO.o(i._ZN4GPIO4InitEv), (20 bytes).
    Removing GPIO.o(i._ZN4GPIO5StartEv), (14 bytes).
    Removing GPIO.o(i._ZN4GPIO6Pin_OnEv), (14 bytes).
    Removing GPIO.o(i._ZN4GPIO6ShutUpEv), (14 bytes).
    Removing GPIO.o(i._ZN4GPIO6UpdateEP12GPIO_TypeDef16GPIO_InitTypeDef), (30 bytes).
    Removing GPIO.o(i._ZN4GPIO7IN_MODEEv), (20 bytes).
    Removing GPIO.o(i._ZN4GPIO7Pin_OffEv), (14 bytes).
    Removing GPIO.o(i._ZN4GPIO7Set_PinEh), (18 bytes).
    Removing GPIO.o(i._ZN4GPIO8OUT_MODEEv), (20 bytes).
    Removing GPIO.o(i._ZN4GPIO8Set_GPIOEP12GPIO_TypeDef), (4 bytes).
    Removing GPIO.o(i._ZN4GPIO8Set_PortEt), (16 bytes).
    Removing GPIO.o(i._ZN4GPIO9Get_GPIOxEv), (6 bytes).
    Removing GPIO.o(i._ZN4GPIOC1EP12GPIO_TypeDef16GPIO_InitTypeDef), (26 bytes).
    Removing GPIO.o(i._ZN4GPIOC1EP12GPIO_TypeDeft), (26 bytes).
    Removing GPIO.o(i._ZN4GPIOC1Ev), (2 bytes).
    Removing GPIO.o(i._ZN4GPIOD1Ev), (2 bytes).
    Removing GPIO.o(.ARM.exidx), (8 bytes).
    Removing GPIO.o(.ARM.exidx), (8 bytes).
    Removing GPIO.o(.ARM.exidx), (8 bytes).
    Removing GPIO.o(.ARM.exidx), (8 bytes).
    Removing GPIO.o(.ARM.exidx), (8 bytes).
    Removing GPIO.o(.ARM.exidx), (8 bytes).
    Removing GPIO.o(.ARM.exidx), (8 bytes).
    Removing GPIO.o(.ARM.exidx), (8 bytes).
    Removing GPIO.o(.ARM.exidx), (8 bytes).
    Removing GPIO.o(.ARM.exidx), (8 bytes).
    Removing GPIO.o(.ARM.exidx), (8 bytes).
    Removing GPIO.o(.ARM.exidx), (8 bytes).
    Removing GPIO.o(.ARM.exidx), (8 bytes).
    Removing GPIO.o(.ARM.exidx), (8 bytes).
    Removing GPIO.o(.ARM.exidx), (8 bytes).
    Removing GPIO.o(.ARM.exidx), (8 bytes).
    Removing GPIO.o(.ARM.exidx), (8 bytes).
    Removing GPIO.o(.ARM.exidx), (8 bytes).
    Removing GPIO.o(.ARM.exidx), (8 bytes).
    Removing GPIO.o(.ARM.exidx), (8 bytes).
    Removing GPIO.o(.ARM.exidx), (8 bytes).
    Removing GPIO.o(.ARM.exidx), (8 bytes).
    Removing GPIO.o(.ARM.exidx), (8 bytes).
    Removing I2C.o(.rev16_text), (4 bytes).
    Removing I2C.o(.revsh_text), (4 bytes).
    Removing I2C.o(.rrx_text), (6 bytes).
    Removing I2C.o(i._ZN3I2C11Check_EventE9I2C_Event), (16 bytes).
    Removing I2C.o(i._ZN3I2C11ReceiveDataEv), (12 bytes).
    Removing I2C.o(i._ZN3I2C13Generate_STOPE15FunctionalState), (16 bytes).
    Removing I2C.o(i._ZN3I2C13GetFlagStatusEj), (16 bytes).
    Removing I2C.o(i._ZN3I2C14Generate_STARTE15FunctionalState), (16 bytes).
    Removing I2C.o(i._ZN3I2C14Software_ResetE15FunctionalState), (16 bytes).
    Removing I2C.o(i._ZN3I2C15Send7bitAddressEhh), (20 bytes).
    Removing I2C.o(i._ZN3I2C17AcknowledgeConfigE15FunctionalState), (16 bytes).
    Removing I2C.o(i._ZN3I2C4InitEv), (82 bytes).
    Removing I2C.o(i._ZN3I2C5StartEv), (14 bytes).
    Removing I2C.o(i._ZN3I2C6ShutUpEv), (14 bytes).
    Removing I2C.o(i._ZN3I2C6UpdateE9I2C_Param), (48 bytes).
    Removing I2C.o(i._ZN3I2C8Pin_InitEv), (484 bytes).
    Removing I2C.o(i._ZN3I2C8SendDataEh), (16 bytes).
    Removing I2C.o(i._ZN3I2C9ClearFlagEj), (16 bytes).
    Removing I2C.o(i._ZN3I2CC1Ev), (16 bytes).
    Removing I2C.o(.ARM.exidx), (8 bytes).
    Removing I2C.o(.ARM.exidx), (8 bytes).
    Removing I2C.o(.ARM.exidx), (8 bytes).
    Removing I2C.o(.ARM.exidx), (8 bytes).
    Removing I2C.o(.ARM.exidx), (8 bytes).
    Removing I2C.o(.ARM.exidx), (8 bytes).
    Removing I2C.o(.ARM.exidx), (8 bytes).
    Removing I2C.o(.ARM.exidx), (8 bytes).
    Removing I2C.o(.ARM.exidx), (8 bytes).
    Removing I2C.o(.ARM.exidx), (8 bytes).
    Removing I2C.o(.ARM.exidx), (8 bytes).
    Removing I2C.o(.ARM.exidx), (8 bytes).
    Removing I2C.o(.ARM.exidx), (8 bytes).
    Removing I2C.o(.ARM.exidx), (8 bytes).
    Removing I2C.o(.ARM.exidx), (8 bytes).
    Removing I2C.o(.ARM.exidx), (8 bytes).
    Removing I2C.o(.ARM.exidx), (8 bytes).
    Removing I2C.o(.ARM.exidx), (8 bytes).
    Removing I2C.o(.ARM.exidx), (8 bytes).
    Removing I2C.o(.ARM.exidx), (8 bytes).
    Removing stm32f10x_it.o(.rev16_text), (4 bytes).
    Removing stm32f10x_it.o(.revsh_text), (4 bytes).
    Removing stm32f10x_it.o(.rrx_text), (6 bytes).
    Removing stm32f10x_it.o(i.TIM1_IRQHandler), (2 bytes).
    Removing stm32f10x_it.o(i.TIM8_IRQHandler), (2 bytes).
    Removing stm32f10x_it.o(.ARM.exidx), (8 bytes).
    Removing stm32f10x_it.o(.ARM.exidx), (8 bytes).
    Removing stm32f10x_it.o(.ARM.exidx), (8 bytes).
    Removing stm32f10x_it.o(.ARM.exidx), (8 bytes).
    Removing stm32f10x_it.o(.ARM.exidx), (8 bytes).
    Removing stm32f10x_it.o(.ARM.exidx), (8 bytes).
    Removing stm32f10x_it.o(.ARM.exidx), (8 bytes).
    Removing stm32f10x_it.o(.ARM.exidx), (8 bytes).
    Removing stm32f10x_it.o(.ARM.exidx), (8 bytes).
    Removing stm32f10x_it.o(.ARM.exidx), (8 bytes).
    Removing stm32f10x_it.o(.ARM.exidx), (8 bytes).
    Removing stm32f10x_it.o(.ARM.exidx), (8 bytes).
    Removing stm32f10x_it.o(.ARM.exidx), (8 bytes).
    Removing stm32f10x_it.o(.ARM.exidx), (8 bytes).
    Removing stm32f10x_it.o(.ARM.exidx), (8 bytes).
    Removing stm32f10x_it.o(.ARM.exidx), (8 bytes).
    Removing stm32f10x_it.o(.ARM.exidx), (8 bytes).
    Removing stm32f10x_it.o(.ARM.exidx), (8 bytes).
    Removing stm32f10x_it.o(.ARM.exidx), (8 bytes).
    Removing stm32f10x_it.o(.ARM.exidx), (8 bytes).
    Removing stm32f10x_it.o(.ARM.exidx), (8 bytes).
    Removing stm32f10x_it.o(.ARM.exidx), (8 bytes).
    Removing stm32f10x_it.o(.ARM.exidx), (8 bytes).
    Removing stm32f10x_it.o(.ARM.exidx), (8 bytes).
    Removing stm32f10x_it.o(.ARM.exidx), (8 bytes).
    Removing stm32f10x_it.o(.ARM.exidx), (8 bytes).
    Removing stm32f10x_it.o(.ARM.exidx), (8 bytes).
    Removing NVIC.o(.rev16_text), (4 bytes).
    Removing NVIC.o(.revsh_text), (4 bytes).
    Removing NVIC.o(.rrx_text), (6 bytes).
    Removing NVIC.o(i._ZN12NVIC_Operate19PriorityGroupConfigEv), (12 bytes).
    Removing NVIC.o(i._ZN12NVIC_Operate4InitEv), (16 bytes).
    Removing NVIC.o(i._ZN12NVIC_Operate5StartEv), (18 bytes).
    Removing NVIC.o(i._ZN12NVIC_Operate6ShutUpEv), (18 bytes).
    Removing NVIC.o(i._ZN12NVIC_Operate6UpdateEP16NVIC_InitTypeDef), (22 bytes).
    Removing NVIC.o(.ARM.exidx), (8 bytes).
    Removing NVIC.o(.ARM.exidx), (8 bytes).
    Removing NVIC.o(.ARM.exidx), (8 bytes).
    Removing NVIC.o(.ARM.exidx), (8 bytes).
    Removing NVIC.o(.ARM.exidx), (8 bytes).
    Removing NVIC.o(.ARM.exidx), (8 bytes).
    Removing NVIC.o(.ARM.exidx), (8 bytes).
    Removing NVIC.o(.ARM.exidx), (8 bytes).
    Removing NVIC.o(.ARM.exidx), (8 bytes).
    Removing PWM.o(.rev16_text), (4 bytes).
    Removing PWM.o(.revsh_text), (4 bytes).
    Removing PWM.o(.rrx_text), (6 bytes).
    Removing PWM.o(i._ZN3PWM13Set_DutyRatioEd), (6 bytes).
    Removing PWM.o(i._ZN3PWM13Set_FrequencyEd), (6 bytes).
    Removing PWM.o(i._ZN3PWM27Set_TIMx_Channelx_SelectionE23TIMx_Channelx_Selection), (4 bytes).
    Removing PWM.o(i._ZN3PWM4InitEv), (460 bytes).
    Removing PWM.o(i._ZN3PWM5StartEv), (14 bytes).
    Removing PWM.o(i._ZN3PWM6ShutUpEv), (14 bytes).
    Removing PWM.o(i._ZN3PWM6UpdateE23TIMx_Channelx_Selectiondd), (60 bytes).
    Removing PWM.o(i._ZN3PWM8Pin_InitEv), (3232 bytes).
    Removing PWM.o(i._ZN3PWMC1E23TIMx_Channelx_Selectiondd), (50 bytes).
    Removing PWM.o(i._ZN3PWMC1Ev), (2 bytes).
    Removing PWM.o(i._ZN3PWMD1Ev), (2 bytes).
    Removing PWM.o(.ARM.exidx), (8 bytes).
    Removing PWM.o(.ARM.exidx), (8 bytes).
    Removing PWM.o(.ARM.exidx), (8 bytes).
    Removing PWM.o(.ARM.exidx), (8 bytes).
    Removing PWM.o(.ARM.exidx), (8 bytes).
    Removing PWM.o(.ARM.exidx), (8 bytes).
    Removing PWM.o(.ARM.exidx), (8 bytes).
    Removing PWM.o(.ARM.exidx), (8 bytes).
    Removing PWM.o(.ARM.exidx), (8 bytes).
    Removing PWM.o(.ARM.exidx), (8 bytes).
    Removing PWM.o(.ARM.exidx), (8 bytes).
    Removing PWM.o(.data), (64 bytes).
    Removing RCC.o(.rev16_text), (4 bytes).
    Removing RCC.o(.revsh_text), (4 bytes).
    Removing RCC.o(.rrx_text), (6 bytes).
    Removing RCC.o(i._ZN11RCC_Operate10RCC_ConfigEP11ADC_TypeDef15FunctionalState), (22 bytes).
    Removing RCC.o(i._ZN11RCC_Operate10RCC_ConfigEP11BKP_TypeDef15FunctionalState), (22 bytes).
    Removing RCC.o(i._ZN11RCC_Operate10RCC_ConfigEP11CAN_TypeDef15FunctionalState), (22 bytes).
    Removing RCC.o(i._ZN11RCC_Operate10RCC_ConfigEP11CRC_TypeDef15FunctionalState), (22 bytes).
    Removing RCC.o(i._ZN11RCC_Operate10RCC_ConfigEP11DAC_TypeDef15FunctionalState), (22 bytes).
    Removing RCC.o(i._ZN11RCC_Operate10RCC_ConfigEP11DMA_TypeDef15FunctionalState), (22 bytes).
    Removing RCC.o(i._ZN11RCC_Operate10RCC_ConfigEP11I2C_TypeDef15FunctionalState), (22 bytes).
    Removing RCC.o(i._ZN11RCC_Operate10RCC_ConfigEP11PWR_TypeDef15FunctionalState), (22 bytes).
    Removing RCC.o(i._ZN11RCC_Operate10RCC_ConfigEP11SPI_TypeDef15FunctionalState), (48 bytes).
    Removing RCC.o(i._ZN11RCC_Operate10RCC_ConfigEP11TIM_TypeDef15FunctionalState), (60 bytes).
    Removing RCC.o(i._ZN11RCC_Operate10RCC_ConfigEP11USB_TypeDef15FunctionalState), (22 bytes).
    Removing RCC.o(i._ZN11RCC_Operate10RCC_ConfigEP12AFIO_TypeDef15FunctionalState), (22 bytes).
    Removing RCC.o(i._ZN11RCC_Operate10RCC_ConfigEP12GPIO_TypeDef15FunctionalState), (22 bytes).
    Removing RCC.o(i._ZN11RCC_Operate10RCC_ConfigEP12SDIO_TypeDef15FunctionalState), (22 bytes).
    Removing RCC.o(i._ZN11RCC_Operate10RCC_ConfigEP12SRAM_TypeDef15FunctionalState), (22 bytes).
    Removing RCC.o(i._ZN11RCC_Operate10RCC_ConfigEP12WWDG_TypeDef15FunctionalState), (22 bytes).
    Removing RCC.o(i._ZN11RCC_Operate10RCC_ConfigEP13FLITF_TypeDef15FunctionalState), (22 bytes).
    Removing RCC.o(i._ZN11RCC_Operate10RCC_ConfigEP13USART_TypeDef15FunctionalState), (48 bytes).
    Removing RCC.o(i._ZN11RCC_Operate10RCC_ConfigEP18FSMC_Bank1_TypeDef15FunctionalState), (22 bytes).
    Removing RCC.o(i._ZN11RCC_Operate10RCC_ConfigEP18FSMC_Bank2_TypeDef15FunctionalState), (22 bytes).
    Removing RCC.o(i._ZN11RCC_Operate10RCC_ConfigEP18FSMC_Bank3_TypeDef15FunctionalState), (22 bytes).
    Removing RCC.o(i._ZN11RCC_Operate10RCC_ConfigEP18FSMC_Bank4_TypeDef15FunctionalState), (22 bytes).
    Removing RCC.o(i._ZN11RCC_Operate10RCC_ConfigEP19FSMC_Bank1E_TypeDef15FunctionalState), (22 bytes).
    Removing RCC.o(i._ZN11RCC_Operate14Get_ClocksFreqEv), (16 bytes).
    Removing RCC.o(i._ZN11RCC_Operate15BKP_Convert_RCCEP11BKP_TypeDef), (8 bytes).
    Removing RCC.o(i._ZN11RCC_Operate15CAN_Convert_RCCEP11CAN_TypeDef), (40 bytes).
    Removing RCC.o(i._ZN11RCC_Operate15CRC_Convert_RCCEP11CRC_TypeDef), (6 bytes).
    Removing RCC.o(i._ZN11RCC_Operate15DAC_Convert_RCCEP11DAC_TypeDef), (8 bytes).
    Removing RCC.o(i._ZN11RCC_Operate15DMA_Convert_RCCEP11DMA_TypeDef), (36 bytes).
    Removing RCC.o(i._ZN11RCC_Operate15HSE_SetSysClockEj), (116 bytes).
    Removing RCC.o(i._ZN11RCC_Operate15HSI_SetSysClockEj), (120 bytes).
    Removing RCC.o(i._ZN11RCC_Operate16ADCX_Convert_RCCEP11ADC_TypeDef), (52 bytes).
    Removing RCC.o(i._ZN11RCC_Operate16AFIO_Convert_RCCEP12AFIO_TypeDef), (6 bytes).
    Removing RCC.o(i._ZN11RCC_Operate16I2CX_Convert_RCCEP11I2C_TypeDef), (40 bytes).
    Removing RCC.o(i._ZN11RCC_Operate16PWRX_Convert_RCCEP11PWR_TypeDef), (8 bytes).
    Removing RCC.o(i._ZN11RCC_Operate16SPIX_Convert_RCCEP11SPI_TypeDef), (48 bytes).
    Removing RCC.o(i._ZN11RCC_Operate16TIMX_Convert_RCCEP11TIM_TypeDef), (116 bytes).
    Removing RCC.o(i._ZN11RCC_Operate16USBX_Convert_RCCEP11USB_TypeDef), (8 bytes).
    Removing RCC.o(i._ZN11RCC_Operate17FLITF_Convert_RCCEP13FLITF_TypeDef), (6 bytes).
    Removing RCC.o(i._ZN11RCC_Operate17GPIOX_Convert_RCCEP12GPIO_TypeDef), (104 bytes).
    Removing RCC.o(i._ZN11RCC_Operate17SDIOX_Convert_RCCEP12SDIO_TypeDef), (8 bytes).
    Removing RCC.o(i._ZN11RCC_Operate17SRAMX_Convert_RCCEP12SRAM_TypeDef), (6 bytes).
    Removing RCC.o(i._ZN11RCC_Operate17WWDGX_Convert_RCCEP12WWDG_TypeDef), (8 bytes).
    Removing RCC.o(i._ZN11RCC_Operate18Get_HCLK_FrequencyEv), (20 bytes).
    Removing RCC.o(i._ZN11RCC_Operate18USARTX_Convert_RCCEP13USART_TypeDef), (88 bytes).
    Removing RCC.o(i._ZN11RCC_Operate19Get_PCLK1_FrequencyEv), (20 bytes).
    Removing RCC.o(i._ZN11RCC_Operate19Get_PCLK2_FrequencyEv), (20 bytes).
    Removing RCC.o(i._ZN11RCC_Operate20Get_ADCCLK_FrequencyEv), (20 bytes).
    Removing RCC.o(i._ZN11RCC_Operate22FSMC_Bank1_Convert_RCCEP18FSMC_Bank1_TypeDef), (8 bytes).
    Removing RCC.o(i._ZN11RCC_Operate22FSMC_Bank2_Convert_RCCEP18FSMC_Bank2_TypeDef), (8 bytes).
    Removing RCC.o(i._ZN11RCC_Operate22FSMC_Bank3_Convert_RCCEP18FSMC_Bank3_TypeDef), (8 bytes).
    Removing RCC.o(i._ZN11RCC_Operate22FSMC_Bank4_Convert_RCCEP18FSMC_Bank4_TypeDef), (8 bytes).
    Removing RCC.o(i._ZN11RCC_Operate23FSMC_Bank1E_Convert_RCCEP19FSMC_Bank1E_TypeDef), (8 bytes).
    Removing RCC.o(i._ZN11RCC_OperateC1Ev), (2 bytes).
    Removing RCC.o(i._ZN11RCC_OperateD1Ev), (2 bytes).
    Removing RCC.o(.ARM.exidx), (8 bytes).
    Removing RCC.o(.ARM.exidx), (8 bytes).
    Removing RCC.o(.ARM.exidx), (8 bytes).
    Removing RCC.o(.ARM.exidx), (8 bytes).
    Removing RCC.o(.ARM.exidx), (8 bytes).
    Removing RCC.o(.ARM.exidx), (8 bytes).
    Removing RCC.o(.ARM.exidx), (8 bytes).
    Removing RCC.o(.ARM.exidx), (8 bytes).
    Removing RCC.o(.ARM.exidx), (8 bytes).
    Removing RCC.o(.ARM.exidx), (8 bytes).
    Removing RCC.o(.ARM.exidx), (8 bytes).
    Removing RCC.o(.ARM.exidx), (8 bytes).
    Removing RCC.o(.ARM.exidx), (8 bytes).
    Removing RCC.o(.ARM.exidx), (8 bytes).
    Removing RCC.o(.ARM.exidx), (8 bytes).
    Removing RCC.o(.ARM.exidx), (8 bytes).
    Removing RCC.o(.ARM.exidx), (8 bytes).
    Removing RCC.o(.ARM.exidx), (8 bytes).
    Removing RCC.o(.ARM.exidx), (8 bytes).
    Removing RCC.o(.ARM.exidx), (8 bytes).
    Removing RCC.o(.ARM.exidx), (8 bytes).
    Removing RCC.o(.ARM.exidx), (8 bytes).
    Removing RCC.o(.ARM.exidx), (8 bytes).
    Removing RCC.o(.ARM.exidx), (8 bytes).
    Removing RCC.o(.ARM.exidx), (8 bytes).
    Removing RCC.o(.ARM.exidx), (8 bytes).
    Removing RCC.o(.ARM.exidx), (8 bytes).
    Removing RCC.o(.ARM.exidx), (8 bytes).
    Removing RCC.o(.ARM.exidx), (8 bytes).
    Removing RCC.o(.ARM.exidx), (8 bytes).
    Removing RCC.o(.ARM.exidx), (8 bytes).
    Removing RCC.o(.ARM.exidx), (8 bytes).
    Removing RCC.o(.ARM.exidx), (8 bytes).
    Removing RCC.o(.ARM.exidx), (8 bytes).
    Removing RCC.o(.ARM.exidx), (8 bytes).
    Removing RCC.o(.ARM.exidx), (8 bytes).
    Removing RCC.o(.ARM.exidx), (8 bytes).
    Removing RCC.o(.ARM.exidx), (8 bytes).
    Removing RCC.o(.ARM.exidx), (8 bytes).
    Removing RCC.o(.ARM.exidx), (8 bytes).
    Removing RCC.o(.ARM.exidx), (8 bytes).
    Removing RCC.o(.ARM.exidx), (8 bytes).
    Removing RCC.o(.ARM.exidx), (8 bytes).
    Removing RCC.o(.ARM.exidx), (8 bytes).
    Removing RCC.o(.ARM.exidx), (8 bytes).
    Removing RCC.o(.ARM.exidx), (8 bytes).
    Removing RCC.o(.ARM.exidx), (8 bytes).
    Removing RCC.o(.ARM.exidx), (8 bytes).
    Removing RCC.o(.ARM.exidx), (8 bytes).
    Removing RCC.o(.ARM.exidx), (8 bytes).
    Removing RCC.o(.ARM.exidx), (8 bytes).
    Removing RCC.o(.ARM.exidx), (8 bytes).
    Removing RCC.o(.ARM.exidx), (8 bytes).
    Removing RCC.o(.ARM.exidx), (8 bytes).
    Removing RCC.o(.ARM.exidx), (8 bytes).
    Removing RCC.o(.ARM.exidx), (8 bytes).
    Removing Servo.o(.rev16_text), (4 bytes).
    Removing Servo.o(.revsh_text), (4 bytes).
    Removing Servo.o(.rrx_text), (6 bytes).
    Removing Servo.o(i._ZN5Servo18Angle_to_DutyRatioEdd), (240 bytes).
    Removing Servo.o(i._ZN5Servo4InitEv), (12 bytes).
    Removing Servo.o(i._ZN5Servo6UpdateE23TIMx_Channelx_Selectiondd), (70 bytes).
    Removing Servo.o(i._ZN5ServoC1E23TIMx_Channelx_Selectiondd), (74 bytes).
    Removing Servo.o(i._ZN5ServoC1Ev), (16 bytes).
    Removing Servo.o(i._ZN5ServoD1Ev), (16 bytes).
    Removing Servo.o(.ARM.exidx), (8 bytes).
    Removing Servo.o(.ARM.exidx), (8 bytes).
    Removing Servo.o(.ARM.exidx), (8 bytes).
    Removing Servo.o(.ARM.exidx), (8 bytes).
    Removing Servo.o(.ARM.exidx), (8 bytes).
    Removing Servo.o(.ARM.exidx), (8 bytes).
    Removing SysTick.o(.rev16_text), (4 bytes).
    Removing SysTick.o(.revsh_text), (4 bytes).
    Removing SysTick.o(.rrx_text), (6 bytes).
    Removing SysTick.o(i._Z14SysTick_Configj), (84 bytes).
    Removing SysTick.o(i._ZN15SysTick_Operate5DelayEjj), (56 bytes).
    Removing SysTick.o(i._ZN15SysTick_Operate8Delay_msEj), (76 bytes).
    Removing SysTick.o(i._ZN15SysTick_Operate8Delay_usEj), (68 bytes).
    Removing SysTick.o(i._ZN15SysTick_OperateC1Ev), (2 bytes).
    Removing SysTick.o(i._ZN15SysTick_OperateD1Ev), (2 bytes).
    Removing SysTick.o(.ARM.exidx), (8 bytes).
    Removing SysTick.o(.ARM.exidx), (8 bytes).
    Removing SysTick.o(.ARM.exidx), (8 bytes).
    Removing SysTick.o(.ARM.exidx), (8 bytes).
    Removing SysTick.o(.ARM.exidx), (8 bytes).
    Removing SysTick.o(.ARM.exidx), (8 bytes).
    Removing TIM.o(.rev16_text), (4 bytes).
    Removing TIM.o(.revsh_text), (4 bytes).
    Removing TIM.o(.rrx_text), (6 bytes).
    Removing TIM.o(i._ZN3TIM14Delay_CompleteEv), (32 bytes).
    Removing TIM.o(i._ZN3TIM4InitEv), (66 bytes).
    Removing TIM.o(i._ZN3TIM5StartEv), (14 bytes).
    Removing TIM.o(i._ZN3TIM6ShutupEv), (14 bytes).
    Removing TIM.o(i._ZN3TIM6UpdateE9TIM_Parma), (48 bytes).
    Removing TIM.o(i._ZN3TIM7OC_InitEv), (82 bytes).
    Removing TIM.o(i._ZN3TIM8Delay_msEj), (144 bytes).
    Removing TIM.o(i._ZN3TIM8Pin_InitEv), (44 bytes).
    Removing TIM.o(i._ZN3TIM9Base_InitEv), (14 bytes).
    Removing TIM.o(i._ZN3TIMC1Ev), (16 bytes).
    Removing TIM.o(.ARM.exidx), (8 bytes).
    Removing TIM.o(.ARM.exidx), (8 bytes).
    Removing TIM.o(.ARM.exidx), (8 bytes).
    Removing TIM.o(.ARM.exidx), (8 bytes).
    Removing TIM.o(.ARM.exidx), (8 bytes).
    Removing TIM.o(.ARM.exidx), (8 bytes).
    Removing TIM.o(.ARM.exidx), (8 bytes).
    Removing TIM.o(.ARM.exidx), (8 bytes).
    Removing TIM.o(.ARM.exidx), (8 bytes).
    Removing TIM.o(.ARM.exidx), (8 bytes).
    Removing TIM.o(.ARM.exidx), (8 bytes).
    Removing TIM.o(.ARM.exidx), (8 bytes).
    Removing TIM.o(.ARM.exidx), (8 bytes).
    Removing TIM.o(.ARM.exidx), (8 bytes).
    Removing TIM.o(.constdata), (8 bytes).
    Removing USART.o(.rev16_text), (4 bytes).
    Removing USART.o(.revsh_text), (4 bytes).
    Removing USART.o(.rrx_text), (6 bytes).
    Removing USART.o(i._ZN5USART11Send_StringEPh), (28 bytes).
    Removing USART.o(i._ZN5USART12Receive_ByteEv), (14 bytes).
    Removing USART.o(i._ZN5USART4InitEv), (58 bytes).
    Removing USART.o(i._ZN5USART5StartEv), (14 bytes).
    Removing USART.o(i._ZN5USART6ShutUpEv), (14 bytes).
    Removing USART.o(i._ZN5USART6UpdateE11USART_Param), (48 bytes).
    Removing USART.o(i._ZN5USART8Pin_InitEv), (1128 bytes).
    Removing USART.o(i._ZN5USART9Send_ByteEh), (30 bytes).
    Removing USART.o(i._ZN5USARTC1Ev), (16 bytes).
    Removing USART.o(.ARM.exidx), (8 bytes).
    Removing USART.o(.ARM.exidx), (8 bytes).
    Removing USART.o(.ARM.exidx), (8 bytes).
    Removing USART.o(.ARM.exidx), (8 bytes).
    Removing USART.o(.ARM.exidx), (8 bytes).
    Removing USART.o(.ARM.exidx), (8 bytes).
    Removing USART.o(.ARM.exidx), (8 bytes).
    Removing USART.o(.ARM.exidx), (8 bytes).
    Removing USART.o(.ARM.exidx), (8 bytes).
    Removing USART.o(.ARM.exidx), (8 bytes).
    Removing USART.o(.ARM.exidx), (8 bytes).
    Removing USART.o(.ARM.exidx), (8 bytes).
    Removing USART.o(.ARM.exidx), (8 bytes).
    Removing dadd.o(.text), (334 bytes).
    Removing dmul.o(.text), (228 bytes).
    Removing ddiv.o(.text), (222 bytes).
    Removing dflti.o(.text), (34 bytes).
    Removing dfltui.o(.text), (26 bytes).
    Removing dfixi.o(.text), (62 bytes).
    Removing dfixui.o(.text), (50 bytes).
    Removing cdcmple.o(.text), (48 bytes).
    Removing depilogue.o(.text), (186 bytes).
    Removing dfixul.o(.text), (48 bytes).
    Removing cdrcmple.o(.text), (48 bytes).
    Removing LCD_12864_Parallel.o(.constdata__ZTV18LCD_12864_Parallel), (92 bytes).
    Removing LCD_12864_Parallel.o(i._ZN9LCD_12864C2Ev), (12 bytes).
    Removing LCD_12864_Parallel.o(.ARM.exidx), (8 bytes).
    Removing LCD_12864_Parallel.o(.constdata__ZTV9LCD_12864), (92 bytes).
    Removing LCD_12864_Parallel.o(.constdata__ZTI18LCD_12864_Parallel), (12 bytes).
    Removing LCD_12864_Parallel.o(.constdata__ZTI9LCD_12864), (8 bytes).
    Removing LCD_12864_Parallel.o(.constdata__ZTS18LCD_12864_Parallel), (21 bytes).
    Removing LCD_12864_Parallel.o(.constdata__ZTS9LCD_12864), (11 bytes).
    Removing LCD_12864_Serial.o(.constdata__ZTV16LCD_12864_Serial), (92 bytes).
    Removing LCD_12864_Serial.o(.constdata__ZTI16LCD_12864_Serial), (12 bytes).
    Removing LCD_12864_Serial.o(.constdata__ZTS16LCD_12864_Serial), (19 bytes).
    Removing I2C.o(.ARM.exidx), (8 bytes).
    Removing I2C.o(.ARM.exidx), (8 bytes).
    Removing TIM.o(.ARM.exidx), (8 bytes).
    Removing TIM.o(.ARM.exidx), (8 bytes).
    Removing USART.o(.ARM.exidx), (8 bytes).
    Removing USART.o(.ARM.exidx), (8 bytes).

1090 unused section(s) (total 41087 bytes) removed from the image.

==============================================================================

Memory Map of the image

  Image Entry point : 0x00000000

  Load Region LR_IROM1 (Base: 0x08000000, Size: 0x00000d5c, Max: 0x00010000, ABSOLUTE)

    Execution Region ER_IROM1 (Base: 0x08000000, Size: 0x00000b20, Max: 0x00010000, ABSOLUTE)

    Base Addr    Size         Type   Attr      Idx    E Section Name        Object

    0x08000000   0x00000130   Data   RO         3544    RESET               startup_stm32f10x_hd.o
    0x08000130   0x00000000   Code   RO         5946  * .ARM.Collect$$$$00000000  mc_w.l(entry.o)
    0x08000130   0x00000004   Code   RO         6269    .ARM.Collect$$$$00000001  mc_w.l(entry2.o)
    0x08000134   0x00000004   Code   RO         6272    .ARM.Collect$$$$00000004  mc_w.l(entry5.o)
    0x08000138   0x00000000   Code   RO         6274    .ARM.Collect$$$$00000008  mc_w.l(entry7b.o)
    0x08000138   0x00000004   Code   RO         6275    .ARM.Collect$$$$00000009  mc_w.l(entry8a.o)
    0x0800013c   0x00000000   Code   RO         6276    .ARM.Collect$$$$0000000A  mc_w.l(entry8b.o)
    0x0800013c   0x00000008   Code   RO         6277    .ARM.Collect$$$$0000000B  mc_w.l(entry9a.o)
    0x08000144   0x00000004   Code   RO         6284    .ARM.Collect$$$$0000000E  mc_w.l(entry12b.o)
    0x08000148   0x00000000   Code   RO         6279    .ARM.Collect$$$$0000000F  mc_w.l(entry10a.o)
    0x08000148   0x00000004   Code   RO         6280    .ARM.Collect$$$$00000010  mc_w.l(entry10b.o)
    0x0800014c   0x00000000   Code   RO         6281    .ARM.Collect$$$$00000011  mc_w.l(entry11a.o)
    0x0800014c   0x00000004   Code   RO         6270    .ARM.Collect$$$$00002712  mc_w.l(entry2.o)
    0x08000150   0x00000024   Code   RO         3545    .text               startup_stm32f10x_hd.o
    0x08000174   0x00000024   Code   RO         5949    .text               mc_w.l(memcpya.o)
    0x08000198   0x00000020   Code   RO         6217    .text               mc_w.l(cpp_init.o)
    0x080001b8   0x0000002e   Code   RO         6219    .text               mc_w.l(aeabi_atexit.o)
    0x080001e6   0x00000002   PAD
    0x080001e8   0x00000008   Code   RO         6325    .text               mc_w.l(cpp_dtor.o)
    0x080001f0   0x00000042   Code   RO         6333    .text               mc_w.l(cxa_finalize.o)
    0x08000232   0x00000002   PAD
    0x08000234   0x00000024   Code   RO         6370    .text               mc_w.l(init.o)
    0x08000258   0x00000002   Code   RO         6374    .text               mc_w.l(cpp_final.o)
    0x0800025a   0x00000004   Code   RO         4727    i.BusFault_Handler  stm32f10x_it.o
    0x0800025e   0x00000002   Code   RO         4728    i.DebugMon_Handler  stm32f10x_it.o
    0x08000260   0x00000002   Code   RO         4729    i.EXTI0_IRQHandler  stm32f10x_it.o
    0x08000262   0x00000002   Code   RO         4730    i.EXTI15_10_IRQHandler  stm32f10x_it.o
    0x08000264   0x00000002   Code   RO         4731    i.EXTI1_IRQHandler  stm32f10x_it.o
    0x08000266   0x00000002   Code   RO         4732    i.EXTI2_IRQHandler  stm32f10x_it.o
    0x08000268   0x00000002   Code   RO         4733    i.EXTI3_IRQHandler  stm32f10x_it.o
    0x0800026a   0x00000002   Code   RO         4734    i.EXTI4_IRQHandler  stm32f10x_it.o
    0x0800026c   0x00000002   Code   RO         4735    i.EXTI9_5_IRQHandler  stm32f10x_it.o
    0x0800026e   0x00000004   Code   RO         4736    i.HardFault_Handler  stm32f10x_it.o
    0x08000272   0x00000004   Code   RO         4737    i.MemManage_Handler  stm32f10x_it.o
    0x08000276   0x00000002   Code   RO         4738    i.NMI_Handler       stm32f10x_it.o
    0x08000278   0x00000002   Code   RO         4739    i.PendSV_Handler    stm32f10x_it.o
    0x0800027a   0x00000002   PAD
    0x0800027c   0x000000d4   Code   RO         1919    i.RCC_GetClocksFreq  stm32f10x_rcc.o
    0x08000350   0x00000002   Code   RO         4740    i.SVC_Handler       stm32f10x_it.o
    0x08000352   0x00000008   Code   RO         3414    i.SetSysClock       system_stm32f10x.o
    0x0800035a   0x00000002   PAD
    0x0800035c   0x000000e0   Code   RO         3415    i.SetSysClockTo72   system_stm32f10x.o
    0x0800043c   0x00000002   Code   RO         4741    i.SysTick_Handler   stm32f10x_it.o
    0x0800043e   0x00000002   PAD
    0x08000440   0x00000060   Code   RO         3417    i.SystemInit        system_stm32f10x.o
    0x080004a0   0x00000060   Code   RO         4743    i.TIM2_IRQHandler   stm32f10x_it.o
    0x08000500   0x00000002   Code   RO         4744    i.TIM3_IRQHandler   stm32f10x_it.o
    0x08000502   0x00000002   Code   RO         4745    i.TIM4_IRQHandler   stm32f10x_it.o
    0x08000504   0x00000002   Code   RO         4746    i.TIM5_IRQHandler   stm32f10x_it.o
    0x08000506   0x00000002   Code   RO         4747    i.TIM6_IRQHandler   stm32f10x_it.o
    0x08000508   0x00000002   Code   RO         4748    i.TIM7_IRQHandler   stm32f10x_it.o
    0x0800050a   0x00000006   Code   RO         2598    i.TIM_ClearITPendingBit  stm32f10x_tim.o
    0x08000510   0x00000018   Code   RO         2603    i.TIM_Cmd           stm32f10x_tim.o
    0x08000528   0x00000022   Code   RO         2624    i.TIM_GetITStatus   stm32f10x_tim.o
    0x0800054a   0x00000002   Code   RO         4750    i.USART1_IRQHandler  stm32f10x_it.o
    0x0800054c   0x00000002   Code   RO         4751    i.USART2_IRQHandler  stm32f10x_it.o
    0x0800054e   0x00000002   Code   RO         4752    i.USART3_IRQHandler  stm32f10x_it.o
    0x08000550   0x00000004   Code   RO         4753    i.UsageFault_Handler  stm32f10x_it.o
    0x08000554   0x00000014   Code   RO         5169    i._ZN11RCC_Operate20Get_SYSCLK_FrequencyEv  RCC.o
    0x08000568   0x00000014   Code   RO         5817    i._ZN11USART_ParamC1Ev  USART.o
    0x0800057c   0x00000014   Code   RO         5820    i._ZN11USART_ParamD1Ev  USART.o
    0x08000590   0x00000004   Code   RO         4963    i._ZN12NVIC_Operate22Set_NVIC_InitStructureEP16NVIC_InitTypeDef  NVIC.o
    0x08000594   0x00000012   Code   RO         4968    i._ZN12NVIC_OperateC1EP16NVIC_InitTypeDef  NVIC.o
    0x080005a6   0x00000002   Code   RO         4969    i._ZN12NVIC_OperateC1Ev  NVIC.o
    0x080005a8   0x00000002   Code   RO         4970    i._ZN12NVIC_OperateD1Ev  NVIC.o
    0x080005aa   0x00000012   Code   RO         4581    i._ZN3I2C13Set_I2C_ParamE9I2C_Param  I2C.o
    0x080005bc   0x0000002e   Code   RO         4593    i._ZN3I2CC1E9I2C_Param  I2C.o
    0x080005ea   0x00000010   Code   RO         4595    i._ZN3I2CD1Ev       I2C.o
    0x080005fa   0x00000012   Code   RO         5590    i._ZN3TIM13Set_TIM_ParmaE9TIM_Parma  TIM.o
    0x0800060c   0x0000002e   Code   RO         5600    i._ZN3TIMC1E9TIM_Parma  TIM.o
    0x0800063a   0x00000010   Code   RO         5602    i._ZN3TIMD1Ev       TIM.o
    0x0800064a   0x00000012   Code   RO         5727    i._ZN5USART15Set_USART_ParamE11USART_Param  USART.o
    0x0800065c   0x0000002e   Code   RO         5734    i._ZN5USARTC1E11USART_Param  USART.o
    0x0800068a   0x00000010   Code   RO         5736    i._ZN5USARTD1Ev     USART.o
    0x0800069a   0x0000001e   Code   RO         4711    i._ZN9I2C_ParamC1Ev  I2C.o
    0x080006b8   0x0000001e   Code   RO         4714    i._ZN9I2C_ParamD1Ev  I2C.o
    0x080006d6   0x00000014   Code   RO         5689    i._ZN9TIM_ParmaC1Ev  TIM.o
    0x080006ea   0x00000014   Code   RO         5692    i._ZN9TIM_ParmaD1Ev  TIM.o
    0x080006fe   0x00000002   PAD
    0x08000700   0x000000e4   Code   RO         4596    i.__sti___7_I2C_cpp_7d40c850  I2C.o
    0x080007e4   0x000000a4   Code   RO         5603    i.__sti___7_TIM_cpp_27c83929  TIM.o
    0x08000888   0x000001d0   Code   RO         5737    i.__sti___9_USART_cpp_e2dc9eab  USART.o
    0x08000a58   0x00000050   Code   RO         6296    i.free              mc_w.l(malloc.o)
    0x08000aa8   0x0000006c   Code   RO         6297    i.malloc            mc_w.l(malloc.o)
    0x08000b14   0x00000000   Data   RO         6393    Region$$Table       anon$$obj.o
    0x08000b14   0x00000004   Data   RO         4619    .init_array         I2C.o
    0x08000b18   0x00000004   Data   RO         5621    .init_array         TIM.o
    0x08000b1c   0x00000004   Data   RO         5753    .init_array         USART.o
    0x08000b20   0x00000000   Data   RO         6215    .init_array         mc_w.l(cpp_init.o)


    Execution Region RW_IRAM1 (Base: 0x20000000, Size: 0x00000948, Max: 0x00005000, ABSOLUTE)

    Base Addr    Size         Type   Attr      Idx    E Section Name        Object

    0x20000000   0x00000014   Data   RW         1939    .data               stm32f10x_rcc.o
    0x20000014   0x00000088   Data   RW         4618    .data               I2C.o
    0x2000009c   0x0000000c   Data   RW         4781    .data               stm32f10x_it.o
    0x200000a8   0x00000050   Data   RW         5620    .data               TIM.o
    0x200000f8   0x00000138   Data   RW         5752    .data               USART.o
    0x20000230   0x00000004   Data   RW         6326    .data               mc_w.l(cpp_dtor.o)
    0x20000234   0x00000004   Data   RW         6372    .data               mc_w.l(mvars.o)
    0x20000238   0x00000004   Data   RW         6373    .data               mc_w.l(mvars.o)
    0x2000023c   0x00000040   Zero   RW         4617    .bss                I2C.o
    0x2000027c   0x00000014   Zero   RW         5233    .bss                RCC.o
    0x20000290   0x0000002c   Zero   RW         5618    .bss                TIM.o
    0x200002bc   0x0000008c   Zero   RW         5751    .bss                USART.o
    0x20000348   0x00000200   Zero   RW         3543    HEAP                startup_stm32f10x_hd.o
    0x20000548   0x00000400   Zero   RW         3542    STACK               startup_stm32f10x_hd.o

